ARM GAS  C:\Users\pcoud\AppData\Local\Temp\ccfBrHDw.s 			page 1


   1              		.syntax unified
   2              		.cpu cortex-m3
   3              		.fpu softvfp
   4              		.eabi_attribute 20, 1
   5              		.eabi_attribute 21, 1
   6              		.eabi_attribute 23, 3
   7              		.eabi_attribute 24, 1
   8              		.eabi_attribute 25, 1
   9              		.eabi_attribute 26, 1
  10              		.eabi_attribute 30, 1
  11              		.eabi_attribute 34, 1
  12              		.eabi_attribute 18, 4
  13              		.thumb
  14              		.syntax unified
  15              		.file	"isr_1.c"
  16              		.text
  17              	.Ltext0:
  18              		.cfi_sections	.debug_frame
  19              		.section	.text.isr_1_Interrupt,"ax",%progbits
  20              		.align	2
  21              		.global	isr_1_Interrupt
  22              		.thumb
  23              		.thumb_func
  24              		.type	isr_1_Interrupt, %function
  25              	isr_1_Interrupt:
  26              	.LFB66:
  27              		.file 1 "Generated_Source\\PSoC5\\isr_1.c"
   1:Generated_Source\PSoC5/isr_1.c **** /*******************************************************************************
   2:Generated_Source\PSoC5/isr_1.c **** * File Name: isr_1.c  
   3:Generated_Source\PSoC5/isr_1.c **** * Version 1.70
   4:Generated_Source\PSoC5/isr_1.c **** *
   5:Generated_Source\PSoC5/isr_1.c **** *  Description:
   6:Generated_Source\PSoC5/isr_1.c **** *   API for controlling the state of an interrupt.
   7:Generated_Source\PSoC5/isr_1.c **** *
   8:Generated_Source\PSoC5/isr_1.c **** *
   9:Generated_Source\PSoC5/isr_1.c **** *  Note:
  10:Generated_Source\PSoC5/isr_1.c **** *
  11:Generated_Source\PSoC5/isr_1.c **** ********************************************************************************
  12:Generated_Source\PSoC5/isr_1.c **** * Copyright 2008-2015, Cypress Semiconductor Corporation.  All rights reserved.
  13:Generated_Source\PSoC5/isr_1.c **** * You may use this file only in accordance with the license, terms, conditions, 
  14:Generated_Source\PSoC5/isr_1.c **** * disclaimers, and limitations in the end user license agreement accompanying 
  15:Generated_Source\PSoC5/isr_1.c **** * the software package with which this file was provided.
  16:Generated_Source\PSoC5/isr_1.c **** *******************************************************************************/
  17:Generated_Source\PSoC5/isr_1.c **** 
  18:Generated_Source\PSoC5/isr_1.c **** 
  19:Generated_Source\PSoC5/isr_1.c **** #include <cydevice_trm.h>
  20:Generated_Source\PSoC5/isr_1.c **** #include <CyLib.h>
  21:Generated_Source\PSoC5/isr_1.c **** #include <isr_1.h>
  22:Generated_Source\PSoC5/isr_1.c **** #include "cyapicallbacks.h"
  23:Generated_Source\PSoC5/isr_1.c **** 
  24:Generated_Source\PSoC5/isr_1.c **** #if !defined(isr_1__REMOVED) /* Check for removal by optimization */
  25:Generated_Source\PSoC5/isr_1.c **** 
  26:Generated_Source\PSoC5/isr_1.c **** /*******************************************************************************
  27:Generated_Source\PSoC5/isr_1.c **** *  Place your includes, defines and code here 
  28:Generated_Source\PSoC5/isr_1.c **** ********************************************************************************/
  29:Generated_Source\PSoC5/isr_1.c **** /* `#START isr_1_intc` */
  30:Generated_Source\PSoC5/isr_1.c **** #include "project.h"
ARM GAS  C:\Users\pcoud\AppData\Local\Temp\ccfBrHDw.s 			page 2


  31:Generated_Source\PSoC5/isr_1.c **** extern uint8 cptcar;
  32:Generated_Source\PSoC5/isr_1.c **** extern char message[100];
  33:Generated_Source\PSoC5/isr_1.c **** 
  34:Generated_Source\PSoC5/isr_1.c **** /* `#END` */
  35:Generated_Source\PSoC5/isr_1.c **** 
  36:Generated_Source\PSoC5/isr_1.c **** #ifndef CYINT_IRQ_BASE
  37:Generated_Source\PSoC5/isr_1.c **** #define CYINT_IRQ_BASE      16
  38:Generated_Source\PSoC5/isr_1.c **** #endif /* CYINT_IRQ_BASE */
  39:Generated_Source\PSoC5/isr_1.c **** #ifndef CYINT_VECT_TABLE
  40:Generated_Source\PSoC5/isr_1.c **** #define CYINT_VECT_TABLE    ((cyisraddress **) CYREG_NVIC_VECT_OFFSET)
  41:Generated_Source\PSoC5/isr_1.c **** #endif /* CYINT_VECT_TABLE */
  42:Generated_Source\PSoC5/isr_1.c **** 
  43:Generated_Source\PSoC5/isr_1.c **** /* Declared in startup, used to set unused interrupts to. */
  44:Generated_Source\PSoC5/isr_1.c **** CY_ISR_PROTO(IntDefaultHandler);
  45:Generated_Source\PSoC5/isr_1.c **** 
  46:Generated_Source\PSoC5/isr_1.c **** 
  47:Generated_Source\PSoC5/isr_1.c **** /*******************************************************************************
  48:Generated_Source\PSoC5/isr_1.c **** * Function Name: isr_1_Start
  49:Generated_Source\PSoC5/isr_1.c **** ********************************************************************************
  50:Generated_Source\PSoC5/isr_1.c **** *
  51:Generated_Source\PSoC5/isr_1.c **** * Summary:
  52:Generated_Source\PSoC5/isr_1.c **** *  Set up the interrupt and enable it. This function disables the interrupt, 
  53:Generated_Source\PSoC5/isr_1.c **** *  sets the default interrupt vector, sets the priority from the value in the
  54:Generated_Source\PSoC5/isr_1.c **** *  Design Wide Resources Interrupt Editor, then enables the interrupt to the 
  55:Generated_Source\PSoC5/isr_1.c **** *  interrupt controller.
  56:Generated_Source\PSoC5/isr_1.c **** *
  57:Generated_Source\PSoC5/isr_1.c **** * Parameters:  
  58:Generated_Source\PSoC5/isr_1.c **** *   None
  59:Generated_Source\PSoC5/isr_1.c **** *
  60:Generated_Source\PSoC5/isr_1.c **** * Return:
  61:Generated_Source\PSoC5/isr_1.c **** *   None
  62:Generated_Source\PSoC5/isr_1.c **** *
  63:Generated_Source\PSoC5/isr_1.c **** *******************************************************************************/
  64:Generated_Source\PSoC5/isr_1.c **** void isr_1_Start(void)
  65:Generated_Source\PSoC5/isr_1.c **** {
  66:Generated_Source\PSoC5/isr_1.c ****     /* For all we know the interrupt is active. */
  67:Generated_Source\PSoC5/isr_1.c ****     isr_1_Disable();
  68:Generated_Source\PSoC5/isr_1.c **** 
  69:Generated_Source\PSoC5/isr_1.c ****     /* Set the ISR to point to the isr_1 Interrupt. */
  70:Generated_Source\PSoC5/isr_1.c ****     isr_1_SetVector(&isr_1_Interrupt);
  71:Generated_Source\PSoC5/isr_1.c **** 
  72:Generated_Source\PSoC5/isr_1.c ****     /* Set the priority. */
  73:Generated_Source\PSoC5/isr_1.c ****     isr_1_SetPriority((uint8)isr_1_INTC_PRIOR_NUMBER);
  74:Generated_Source\PSoC5/isr_1.c **** 
  75:Generated_Source\PSoC5/isr_1.c ****     /* Enable it. */
  76:Generated_Source\PSoC5/isr_1.c ****     isr_1_Enable();
  77:Generated_Source\PSoC5/isr_1.c **** }
  78:Generated_Source\PSoC5/isr_1.c **** 
  79:Generated_Source\PSoC5/isr_1.c **** 
  80:Generated_Source\PSoC5/isr_1.c **** /*******************************************************************************
  81:Generated_Source\PSoC5/isr_1.c **** * Function Name: isr_1_StartEx
  82:Generated_Source\PSoC5/isr_1.c **** ********************************************************************************
  83:Generated_Source\PSoC5/isr_1.c **** *
  84:Generated_Source\PSoC5/isr_1.c **** * Summary:
  85:Generated_Source\PSoC5/isr_1.c **** *  Sets up the interrupt and enables it. This function disables the interrupt,
  86:Generated_Source\PSoC5/isr_1.c **** *  sets the interrupt vector based on the address passed in, sets the priority 
  87:Generated_Source\PSoC5/isr_1.c **** *  from the value in the Design Wide Resources Interrupt Editor, then enables 
ARM GAS  C:\Users\pcoud\AppData\Local\Temp\ccfBrHDw.s 			page 3


  88:Generated_Source\PSoC5/isr_1.c **** *  the interrupt to the interrupt controller.
  89:Generated_Source\PSoC5/isr_1.c **** *  
  90:Generated_Source\PSoC5/isr_1.c **** *  When defining ISR functions, the CY_ISR and CY_ISR_PROTO macros should be 
  91:Generated_Source\PSoC5/isr_1.c **** *  used to provide consistent definition across compilers:
  92:Generated_Source\PSoC5/isr_1.c **** *  
  93:Generated_Source\PSoC5/isr_1.c **** *  Function definition example:
  94:Generated_Source\PSoC5/isr_1.c **** *   CY_ISR(MyISR)
  95:Generated_Source\PSoC5/isr_1.c **** *   {
  96:Generated_Source\PSoC5/isr_1.c **** *   }
  97:Generated_Source\PSoC5/isr_1.c **** *   Function prototype example:
  98:Generated_Source\PSoC5/isr_1.c **** *   CY_ISR_PROTO(MyISR);
  99:Generated_Source\PSoC5/isr_1.c **** *
 100:Generated_Source\PSoC5/isr_1.c **** * Parameters:  
 101:Generated_Source\PSoC5/isr_1.c **** *   address: Address of the ISR to set in the interrupt vector table.
 102:Generated_Source\PSoC5/isr_1.c **** *
 103:Generated_Source\PSoC5/isr_1.c **** * Return:
 104:Generated_Source\PSoC5/isr_1.c **** *   None
 105:Generated_Source\PSoC5/isr_1.c **** *
 106:Generated_Source\PSoC5/isr_1.c **** *******************************************************************************/
 107:Generated_Source\PSoC5/isr_1.c **** void isr_1_StartEx(cyisraddress address)
 108:Generated_Source\PSoC5/isr_1.c **** {
 109:Generated_Source\PSoC5/isr_1.c ****     /* For all we know the interrupt is active. */
 110:Generated_Source\PSoC5/isr_1.c ****     isr_1_Disable();
 111:Generated_Source\PSoC5/isr_1.c **** 
 112:Generated_Source\PSoC5/isr_1.c ****     /* Set the ISR to point to the isr_1 Interrupt. */
 113:Generated_Source\PSoC5/isr_1.c ****     isr_1_SetVector(address);
 114:Generated_Source\PSoC5/isr_1.c **** 
 115:Generated_Source\PSoC5/isr_1.c ****     /* Set the priority. */
 116:Generated_Source\PSoC5/isr_1.c ****     isr_1_SetPriority((uint8)isr_1_INTC_PRIOR_NUMBER);
 117:Generated_Source\PSoC5/isr_1.c **** 
 118:Generated_Source\PSoC5/isr_1.c ****     /* Enable it. */
 119:Generated_Source\PSoC5/isr_1.c ****     isr_1_Enable();
 120:Generated_Source\PSoC5/isr_1.c **** }
 121:Generated_Source\PSoC5/isr_1.c **** 
 122:Generated_Source\PSoC5/isr_1.c **** 
 123:Generated_Source\PSoC5/isr_1.c **** /*******************************************************************************
 124:Generated_Source\PSoC5/isr_1.c **** * Function Name: isr_1_Stop
 125:Generated_Source\PSoC5/isr_1.c **** ********************************************************************************
 126:Generated_Source\PSoC5/isr_1.c **** *
 127:Generated_Source\PSoC5/isr_1.c **** * Summary:
 128:Generated_Source\PSoC5/isr_1.c **** *   Disables and removes the interrupt.
 129:Generated_Source\PSoC5/isr_1.c **** *
 130:Generated_Source\PSoC5/isr_1.c **** * Parameters:  
 131:Generated_Source\PSoC5/isr_1.c **** *   None
 132:Generated_Source\PSoC5/isr_1.c **** *
 133:Generated_Source\PSoC5/isr_1.c **** * Return:
 134:Generated_Source\PSoC5/isr_1.c **** *   None
 135:Generated_Source\PSoC5/isr_1.c **** *
 136:Generated_Source\PSoC5/isr_1.c **** *******************************************************************************/
 137:Generated_Source\PSoC5/isr_1.c **** void isr_1_Stop(void)
 138:Generated_Source\PSoC5/isr_1.c **** {
 139:Generated_Source\PSoC5/isr_1.c ****     /* Disable this interrupt. */
 140:Generated_Source\PSoC5/isr_1.c ****     isr_1_Disable();
 141:Generated_Source\PSoC5/isr_1.c **** 
 142:Generated_Source\PSoC5/isr_1.c ****     /* Set the ISR to point to the passive one. */
 143:Generated_Source\PSoC5/isr_1.c ****     isr_1_SetVector(&IntDefaultHandler);
 144:Generated_Source\PSoC5/isr_1.c **** }
ARM GAS  C:\Users\pcoud\AppData\Local\Temp\ccfBrHDw.s 			page 4


 145:Generated_Source\PSoC5/isr_1.c **** 
 146:Generated_Source\PSoC5/isr_1.c **** 
 147:Generated_Source\PSoC5/isr_1.c **** /*******************************************************************************
 148:Generated_Source\PSoC5/isr_1.c **** * Function Name: isr_1_Interrupt
 149:Generated_Source\PSoC5/isr_1.c **** ********************************************************************************
 150:Generated_Source\PSoC5/isr_1.c **** *
 151:Generated_Source\PSoC5/isr_1.c **** * Summary:
 152:Generated_Source\PSoC5/isr_1.c **** *   The default Interrupt Service Routine for isr_1.
 153:Generated_Source\PSoC5/isr_1.c **** *
 154:Generated_Source\PSoC5/isr_1.c **** *   Add custom code between the coments to keep the next version of this file
 155:Generated_Source\PSoC5/isr_1.c **** *   from over writting your code.
 156:Generated_Source\PSoC5/isr_1.c **** *
 157:Generated_Source\PSoC5/isr_1.c **** * Parameters:  
 158:Generated_Source\PSoC5/isr_1.c **** *
 159:Generated_Source\PSoC5/isr_1.c **** * Return:
 160:Generated_Source\PSoC5/isr_1.c **** *   None
 161:Generated_Source\PSoC5/isr_1.c **** *
 162:Generated_Source\PSoC5/isr_1.c **** *******************************************************************************/
 163:Generated_Source\PSoC5/isr_1.c **** CY_ISR(isr_1_Interrupt)
 164:Generated_Source\PSoC5/isr_1.c **** {
  28              		.loc 1 164 0
  29              		.cfi_startproc
  30              		@ args = 0, pretend = 0, frame = 0
  31              		@ frame_needed = 0, uses_anonymous_args = 0
  32 0000 38B5     		push	{r3, r4, r5, lr}
  33              		.cfi_def_cfa_offset 16
  34              		.cfi_offset 3, -16
  35              		.cfi_offset 4, -12
  36              		.cfi_offset 5, -8
  37              		.cfi_offset 14, -4
 165:Generated_Source\PSoC5/isr_1.c ****     #ifdef isr_1_INTERRUPT_INTERRUPT_CALLBACK
 166:Generated_Source\PSoC5/isr_1.c ****         isr_1_Interrupt_InterruptCallback();
 167:Generated_Source\PSoC5/isr_1.c ****     #endif /* isr_1_INTERRUPT_INTERRUPT_CALLBACK */ 
 168:Generated_Source\PSoC5/isr_1.c **** 
 169:Generated_Source\PSoC5/isr_1.c ****     /*  Place your Interrupt code here. */
 170:Generated_Source\PSoC5/isr_1.c ****     /* `#START isr_1_Interrupt` */
 171:Generated_Source\PSoC5/isr_1.c ****         message[cptcar]=UART_SIG_GetChar() ;
  38              		.loc 1 171 0
  39 0002 084C     		ldr	r4, .L4
  40 0004 2578     		ldrb	r5, [r4]	@ zero_extendqisi2
  41 0006 FFF7FEFF 		bl	UART_SIG_GetChar
  42              	.LVL0:
  43 000a 074B     		ldr	r3, .L4+4
  44 000c 5855     		strb	r0, [r3, r5]
 172:Generated_Source\PSoC5/isr_1.c ****     if (message[cptcar]==0xA) {
  45              		.loc 1 172 0
  46 000e 2278     		ldrb	r2, [r4]	@ zero_extendqisi2
  47 0010 9B5C     		ldrb	r3, [r3, r2]	@ zero_extendqisi2
  48 0012 0A2B     		cmp	r3, #10
  49 0014 01D1     		bne	.L2
 173:Generated_Source\PSoC5/isr_1.c ****         cptcar=0;
  50              		.loc 1 173 0
  51 0016 0022     		movs	r2, #0
  52 0018 2270     		strb	r2, [r4]
  53              	.L2:
 174:Generated_Source\PSoC5/isr_1.c ****         }
 175:Generated_Source\PSoC5/isr_1.c ****    // if ((message[3]=='a')&&(message[4]=='r')&&(message[5]=='t')) {//Lecture (St)art
ARM GAS  C:\Users\pcoud\AppData\Local\Temp\ccfBrHDw.s 			page 5


 176:Generated_Source\PSoC5/isr_1.c ****         
 177:Generated_Source\PSoC5/isr_1.c ****    //     }
 178:Generated_Source\PSoC5/isr_1.c **** 
 179:Generated_Source\PSoC5/isr_1.c ****      cptcar++;
  54              		.loc 1 179 0
  55 001a 024A     		ldr	r2, .L4
  56 001c 1378     		ldrb	r3, [r2]	@ zero_extendqisi2
  57 001e 0133     		adds	r3, r3, #1
  58 0020 1370     		strb	r3, [r2]
  59 0022 38BD     		pop	{r3, r4, r5, pc}
  60              	.L5:
  61              		.align	2
  62              	.L4:
  63 0024 00000000 		.word	cptcar
  64 0028 00000000 		.word	message
  65              		.cfi_endproc
  66              	.LFE66:
  67              		.size	isr_1_Interrupt, .-isr_1_Interrupt
  68              		.section	.text.isr_1_SetVector,"ax",%progbits
  69              		.align	2
  70              		.global	isr_1_SetVector
  71              		.thumb
  72              		.thumb_func
  73              		.type	isr_1_SetVector, %function
  74              	isr_1_SetVector:
  75              	.LFB67:
 180:Generated_Source\PSoC5/isr_1.c ****     /* `#END` */
 181:Generated_Source\PSoC5/isr_1.c **** }
 182:Generated_Source\PSoC5/isr_1.c **** 
 183:Generated_Source\PSoC5/isr_1.c **** 
 184:Generated_Source\PSoC5/isr_1.c **** /*******************************************************************************
 185:Generated_Source\PSoC5/isr_1.c **** * Function Name: isr_1_SetVector
 186:Generated_Source\PSoC5/isr_1.c **** ********************************************************************************
 187:Generated_Source\PSoC5/isr_1.c **** *
 188:Generated_Source\PSoC5/isr_1.c **** * Summary:
 189:Generated_Source\PSoC5/isr_1.c **** *   Change the ISR vector for the Interrupt. Note calling isr_1_Start
 190:Generated_Source\PSoC5/isr_1.c **** *   will override any effect this method would have had. To set the vector 
 191:Generated_Source\PSoC5/isr_1.c **** *   before the component has been started use isr_1_StartEx instead.
 192:Generated_Source\PSoC5/isr_1.c **** * 
 193:Generated_Source\PSoC5/isr_1.c **** *   When defining ISR functions, the CY_ISR and CY_ISR_PROTO macros should be 
 194:Generated_Source\PSoC5/isr_1.c **** *   used to provide consistent definition across compilers:
 195:Generated_Source\PSoC5/isr_1.c **** *
 196:Generated_Source\PSoC5/isr_1.c **** *   Function definition example:
 197:Generated_Source\PSoC5/isr_1.c **** *   CY_ISR(MyISR)
 198:Generated_Source\PSoC5/isr_1.c **** *   {
 199:Generated_Source\PSoC5/isr_1.c **** *   }
 200:Generated_Source\PSoC5/isr_1.c **** *
 201:Generated_Source\PSoC5/isr_1.c **** *   Function prototype example:
 202:Generated_Source\PSoC5/isr_1.c **** *     CY_ISR_PROTO(MyISR);
 203:Generated_Source\PSoC5/isr_1.c **** *
 204:Generated_Source\PSoC5/isr_1.c **** * Parameters:
 205:Generated_Source\PSoC5/isr_1.c **** *   address: Address of the ISR to set in the interrupt vector table.
 206:Generated_Source\PSoC5/isr_1.c **** *
 207:Generated_Source\PSoC5/isr_1.c **** * Return:
 208:Generated_Source\PSoC5/isr_1.c **** *   None
 209:Generated_Source\PSoC5/isr_1.c **** *
 210:Generated_Source\PSoC5/isr_1.c **** *******************************************************************************/
ARM GAS  C:\Users\pcoud\AppData\Local\Temp\ccfBrHDw.s 			page 6


 211:Generated_Source\PSoC5/isr_1.c **** void isr_1_SetVector(cyisraddress address)
 212:Generated_Source\PSoC5/isr_1.c **** {
  76              		.loc 1 212 0
  77              		.cfi_startproc
  78              		@ args = 0, pretend = 0, frame = 0
  79              		@ frame_needed = 0, uses_anonymous_args = 0
  80              		@ link register save eliminated.
  81              	.LVL1:
 213:Generated_Source\PSoC5/isr_1.c ****     cyisraddress * ramVectorTable;
 214:Generated_Source\PSoC5/isr_1.c **** 
 215:Generated_Source\PSoC5/isr_1.c ****     ramVectorTable = (cyisraddress *) *CYINT_VECT_TABLE;
  82              		.loc 1 215 0
  83 0000 014B     		ldr	r3, .L7
  84 0002 1B68     		ldr	r3, [r3]
  85              	.LVL2:
 216:Generated_Source\PSoC5/isr_1.c **** 
 217:Generated_Source\PSoC5/isr_1.c ****     ramVectorTable[CYINT_IRQ_BASE + (uint32)isr_1__INTC_NUMBER] = address;
  86              		.loc 1 217 0
  87 0004 5864     		str	r0, [r3, #68]
  88 0006 7047     		bx	lr
  89              	.L8:
  90              		.align	2
  91              	.L7:
  92 0008 08ED00E0 		.word	-536810232
  93              		.cfi_endproc
  94              	.LFE67:
  95              		.size	isr_1_SetVector, .-isr_1_SetVector
  96              		.section	.text.isr_1_GetVector,"ax",%progbits
  97              		.align	2
  98              		.global	isr_1_GetVector
  99              		.thumb
 100              		.thumb_func
 101              		.type	isr_1_GetVector, %function
 102              	isr_1_GetVector:
 103              	.LFB68:
 218:Generated_Source\PSoC5/isr_1.c **** }
 219:Generated_Source\PSoC5/isr_1.c **** 
 220:Generated_Source\PSoC5/isr_1.c **** 
 221:Generated_Source\PSoC5/isr_1.c **** /*******************************************************************************
 222:Generated_Source\PSoC5/isr_1.c **** * Function Name: isr_1_GetVector
 223:Generated_Source\PSoC5/isr_1.c **** ********************************************************************************
 224:Generated_Source\PSoC5/isr_1.c **** *
 225:Generated_Source\PSoC5/isr_1.c **** * Summary:
 226:Generated_Source\PSoC5/isr_1.c **** *   Gets the "address" of the current ISR vector for the Interrupt.
 227:Generated_Source\PSoC5/isr_1.c **** *
 228:Generated_Source\PSoC5/isr_1.c **** * Parameters:
 229:Generated_Source\PSoC5/isr_1.c **** *   None
 230:Generated_Source\PSoC5/isr_1.c **** *
 231:Generated_Source\PSoC5/isr_1.c **** * Return:
 232:Generated_Source\PSoC5/isr_1.c **** *   Address of the ISR in the interrupt vector table.
 233:Generated_Source\PSoC5/isr_1.c **** *
 234:Generated_Source\PSoC5/isr_1.c **** *******************************************************************************/
 235:Generated_Source\PSoC5/isr_1.c **** cyisraddress isr_1_GetVector(void)
 236:Generated_Source\PSoC5/isr_1.c **** {
 104              		.loc 1 236 0
 105              		.cfi_startproc
 106              		@ args = 0, pretend = 0, frame = 0
ARM GAS  C:\Users\pcoud\AppData\Local\Temp\ccfBrHDw.s 			page 7


 107              		@ frame_needed = 0, uses_anonymous_args = 0
 108              		@ link register save eliminated.
 237:Generated_Source\PSoC5/isr_1.c ****     cyisraddress * ramVectorTable;
 238:Generated_Source\PSoC5/isr_1.c **** 
 239:Generated_Source\PSoC5/isr_1.c ****     ramVectorTable = (cyisraddress *) *CYINT_VECT_TABLE;
 109              		.loc 1 239 0
 110 0000 014B     		ldr	r3, .L10
 111 0002 1B68     		ldr	r3, [r3]
 112              	.LVL3:
 240:Generated_Source\PSoC5/isr_1.c **** 
 241:Generated_Source\PSoC5/isr_1.c ****     return ramVectorTable[CYINT_IRQ_BASE + (uint32)isr_1__INTC_NUMBER];
 242:Generated_Source\PSoC5/isr_1.c **** }
 113              		.loc 1 242 0
 114 0004 586C     		ldr	r0, [r3, #68]
 115 0006 7047     		bx	lr
 116              	.L11:
 117              		.align	2
 118              	.L10:
 119 0008 08ED00E0 		.word	-536810232
 120              		.cfi_endproc
 121              	.LFE68:
 122              		.size	isr_1_GetVector, .-isr_1_GetVector
 123              		.section	.text.isr_1_SetPriority,"ax",%progbits
 124              		.align	2
 125              		.global	isr_1_SetPriority
 126              		.thumb
 127              		.thumb_func
 128              		.type	isr_1_SetPriority, %function
 129              	isr_1_SetPriority:
 130              	.LFB69:
 243:Generated_Source\PSoC5/isr_1.c **** 
 244:Generated_Source\PSoC5/isr_1.c **** 
 245:Generated_Source\PSoC5/isr_1.c **** /*******************************************************************************
 246:Generated_Source\PSoC5/isr_1.c **** * Function Name: isr_1_SetPriority
 247:Generated_Source\PSoC5/isr_1.c **** ********************************************************************************
 248:Generated_Source\PSoC5/isr_1.c **** *
 249:Generated_Source\PSoC5/isr_1.c **** * Summary:
 250:Generated_Source\PSoC5/isr_1.c **** *   Sets the Priority of the Interrupt. 
 251:Generated_Source\PSoC5/isr_1.c **** *
 252:Generated_Source\PSoC5/isr_1.c **** *   Note calling isr_1_Start or isr_1_StartEx will 
 253:Generated_Source\PSoC5/isr_1.c **** *   override any effect this API would have had. This API should only be called
 254:Generated_Source\PSoC5/isr_1.c **** *   after isr_1_Start or isr_1_StartEx has been called. 
 255:Generated_Source\PSoC5/isr_1.c **** *   To set the initial priority for the component, use the Design-Wide Resources
 256:Generated_Source\PSoC5/isr_1.c **** *   Interrupt Editor.
 257:Generated_Source\PSoC5/isr_1.c **** *
 258:Generated_Source\PSoC5/isr_1.c **** *   Note This API has no effect on Non-maskable interrupt NMI).
 259:Generated_Source\PSoC5/isr_1.c **** *
 260:Generated_Source\PSoC5/isr_1.c **** * Parameters:
 261:Generated_Source\PSoC5/isr_1.c **** *   priority: Priority of the interrupt, 0 being the highest priority
 262:Generated_Source\PSoC5/isr_1.c **** *             PSoC 3 and PSoC 5LP: Priority is from 0 to 7.
 263:Generated_Source\PSoC5/isr_1.c **** *             PSoC 4: Priority is from 0 to 3.
 264:Generated_Source\PSoC5/isr_1.c **** *
 265:Generated_Source\PSoC5/isr_1.c **** * Return:
 266:Generated_Source\PSoC5/isr_1.c **** *   None
 267:Generated_Source\PSoC5/isr_1.c **** *
 268:Generated_Source\PSoC5/isr_1.c **** *******************************************************************************/
 269:Generated_Source\PSoC5/isr_1.c **** void isr_1_SetPriority(uint8 priority)
ARM GAS  C:\Users\pcoud\AppData\Local\Temp\ccfBrHDw.s 			page 8


 270:Generated_Source\PSoC5/isr_1.c **** {
 131              		.loc 1 270 0
 132              		.cfi_startproc
 133              		@ args = 0, pretend = 0, frame = 0
 134              		@ frame_needed = 0, uses_anonymous_args = 0
 135              		@ link register save eliminated.
 136              	.LVL4:
 271:Generated_Source\PSoC5/isr_1.c ****     *isr_1_INTC_PRIOR = priority << 5;
 137              		.loc 1 271 0
 138 0000 4001     		lsls	r0, r0, #5
 139              	.LVL5:
 140 0002 C0B2     		uxtb	r0, r0
 141 0004 014B     		ldr	r3, .L13
 142 0006 1870     		strb	r0, [r3]
 143 0008 7047     		bx	lr
 144              	.L14:
 145 000a 00BF     		.align	2
 146              	.L13:
 147 000c 01E400E0 		.word	-536812543
 148              		.cfi_endproc
 149              	.LFE69:
 150              		.size	isr_1_SetPriority, .-isr_1_SetPriority
 151              		.section	.text.isr_1_GetPriority,"ax",%progbits
 152              		.align	2
 153              		.global	isr_1_GetPriority
 154              		.thumb
 155              		.thumb_func
 156              		.type	isr_1_GetPriority, %function
 157              	isr_1_GetPriority:
 158              	.LFB70:
 272:Generated_Source\PSoC5/isr_1.c **** }
 273:Generated_Source\PSoC5/isr_1.c **** 
 274:Generated_Source\PSoC5/isr_1.c **** 
 275:Generated_Source\PSoC5/isr_1.c **** /*******************************************************************************
 276:Generated_Source\PSoC5/isr_1.c **** * Function Name: isr_1_GetPriority
 277:Generated_Source\PSoC5/isr_1.c **** ********************************************************************************
 278:Generated_Source\PSoC5/isr_1.c **** *
 279:Generated_Source\PSoC5/isr_1.c **** * Summary:
 280:Generated_Source\PSoC5/isr_1.c **** *   Gets the Priority of the Interrupt.
 281:Generated_Source\PSoC5/isr_1.c **** *
 282:Generated_Source\PSoC5/isr_1.c **** * Parameters:
 283:Generated_Source\PSoC5/isr_1.c **** *   None
 284:Generated_Source\PSoC5/isr_1.c **** *
 285:Generated_Source\PSoC5/isr_1.c **** * Return:
 286:Generated_Source\PSoC5/isr_1.c **** *   Priority of the interrupt, 0 being the highest priority
 287:Generated_Source\PSoC5/isr_1.c **** *    PSoC 3 and PSoC 5LP: Priority is from 0 to 7.
 288:Generated_Source\PSoC5/isr_1.c **** *    PSoC 4: Priority is from 0 to 3.
 289:Generated_Source\PSoC5/isr_1.c **** *
 290:Generated_Source\PSoC5/isr_1.c **** *******************************************************************************/
 291:Generated_Source\PSoC5/isr_1.c **** uint8 isr_1_GetPriority(void)
 292:Generated_Source\PSoC5/isr_1.c **** {
 159              		.loc 1 292 0
 160              		.cfi_startproc
 161              		@ args = 0, pretend = 0, frame = 0
 162              		@ frame_needed = 0, uses_anonymous_args = 0
 163              		@ link register save eliminated.
 293:Generated_Source\PSoC5/isr_1.c ****     uint8 priority;
ARM GAS  C:\Users\pcoud\AppData\Local\Temp\ccfBrHDw.s 			page 9


 294:Generated_Source\PSoC5/isr_1.c **** 
 295:Generated_Source\PSoC5/isr_1.c **** 
 296:Generated_Source\PSoC5/isr_1.c ****     priority = *isr_1_INTC_PRIOR >> 5;
 164              		.loc 1 296 0
 165 0000 014B     		ldr	r3, .L16
 166 0002 1878     		ldrb	r0, [r3]	@ zero_extendqisi2
 167              	.LVL6:
 297:Generated_Source\PSoC5/isr_1.c **** 
 298:Generated_Source\PSoC5/isr_1.c ****     return priority;
 299:Generated_Source\PSoC5/isr_1.c **** }
 168              		.loc 1 299 0
 169 0004 4009     		lsrs	r0, r0, #5
 170              	.LVL7:
 171 0006 7047     		bx	lr
 172              	.L17:
 173              		.align	2
 174              	.L16:
 175 0008 01E400E0 		.word	-536812543
 176              		.cfi_endproc
 177              	.LFE70:
 178              		.size	isr_1_GetPriority, .-isr_1_GetPriority
 179              		.section	.text.isr_1_Enable,"ax",%progbits
 180              		.align	2
 181              		.global	isr_1_Enable
 182              		.thumb
 183              		.thumb_func
 184              		.type	isr_1_Enable, %function
 185              	isr_1_Enable:
 186              	.LFB71:
 300:Generated_Source\PSoC5/isr_1.c **** 
 301:Generated_Source\PSoC5/isr_1.c **** 
 302:Generated_Source\PSoC5/isr_1.c **** /*******************************************************************************
 303:Generated_Source\PSoC5/isr_1.c **** * Function Name: isr_1_Enable
 304:Generated_Source\PSoC5/isr_1.c **** ********************************************************************************
 305:Generated_Source\PSoC5/isr_1.c **** *
 306:Generated_Source\PSoC5/isr_1.c **** * Summary:
 307:Generated_Source\PSoC5/isr_1.c **** *   Enables the interrupt to the interrupt controller. Do not call this function
 308:Generated_Source\PSoC5/isr_1.c **** *   unless ISR_Start() has been called or the functionality of the ISR_Start() 
 309:Generated_Source\PSoC5/isr_1.c **** *   function, which sets the vector and the priority, has been called.
 310:Generated_Source\PSoC5/isr_1.c **** *
 311:Generated_Source\PSoC5/isr_1.c **** * Parameters:
 312:Generated_Source\PSoC5/isr_1.c **** *   None
 313:Generated_Source\PSoC5/isr_1.c **** *
 314:Generated_Source\PSoC5/isr_1.c **** * Return:
 315:Generated_Source\PSoC5/isr_1.c **** *   None
 316:Generated_Source\PSoC5/isr_1.c **** *
 317:Generated_Source\PSoC5/isr_1.c **** *******************************************************************************/
 318:Generated_Source\PSoC5/isr_1.c **** void isr_1_Enable(void)
 319:Generated_Source\PSoC5/isr_1.c **** {
 187              		.loc 1 319 0
 188              		.cfi_startproc
 189              		@ args = 0, pretend = 0, frame = 0
 190              		@ frame_needed = 0, uses_anonymous_args = 0
 191              		@ link register save eliminated.
 320:Generated_Source\PSoC5/isr_1.c ****     /* Enable the general interrupt. */
 321:Generated_Source\PSoC5/isr_1.c ****     *isr_1_INTC_SET_EN = isr_1__INTC_MASK;
 192              		.loc 1 321 0
ARM GAS  C:\Users\pcoud\AppData\Local\Temp\ccfBrHDw.s 			page 10


 193 0000 0222     		movs	r2, #2
 194 0002 014B     		ldr	r3, .L19
 195 0004 1A60     		str	r2, [r3]
 196 0006 7047     		bx	lr
 197              	.L20:
 198              		.align	2
 199              	.L19:
 200 0008 00E100E0 		.word	-536813312
 201              		.cfi_endproc
 202              	.LFE71:
 203              		.size	isr_1_Enable, .-isr_1_Enable
 204              		.section	.text.isr_1_GetState,"ax",%progbits
 205              		.align	2
 206              		.global	isr_1_GetState
 207              		.thumb
 208              		.thumb_func
 209              		.type	isr_1_GetState, %function
 210              	isr_1_GetState:
 211              	.LFB72:
 322:Generated_Source\PSoC5/isr_1.c **** }
 323:Generated_Source\PSoC5/isr_1.c **** 
 324:Generated_Source\PSoC5/isr_1.c **** 
 325:Generated_Source\PSoC5/isr_1.c **** /*******************************************************************************
 326:Generated_Source\PSoC5/isr_1.c **** * Function Name: isr_1_GetState
 327:Generated_Source\PSoC5/isr_1.c **** ********************************************************************************
 328:Generated_Source\PSoC5/isr_1.c **** *
 329:Generated_Source\PSoC5/isr_1.c **** * Summary:
 330:Generated_Source\PSoC5/isr_1.c **** *   Gets the state (enabled, disabled) of the Interrupt.
 331:Generated_Source\PSoC5/isr_1.c **** *
 332:Generated_Source\PSoC5/isr_1.c **** * Parameters:
 333:Generated_Source\PSoC5/isr_1.c **** *   None
 334:Generated_Source\PSoC5/isr_1.c **** *
 335:Generated_Source\PSoC5/isr_1.c **** * Return:
 336:Generated_Source\PSoC5/isr_1.c **** *   1 if enabled, 0 if disabled.
 337:Generated_Source\PSoC5/isr_1.c **** *
 338:Generated_Source\PSoC5/isr_1.c **** *******************************************************************************/
 339:Generated_Source\PSoC5/isr_1.c **** uint8 isr_1_GetState(void)
 340:Generated_Source\PSoC5/isr_1.c **** {
 212              		.loc 1 340 0
 213              		.cfi_startproc
 214              		@ args = 0, pretend = 0, frame = 0
 215              		@ frame_needed = 0, uses_anonymous_args = 0
 216              		@ link register save eliminated.
 341:Generated_Source\PSoC5/isr_1.c ****     /* Get the state of the general interrupt. */
 342:Generated_Source\PSoC5/isr_1.c ****     return ((*isr_1_INTC_SET_EN & (uint32)isr_1__INTC_MASK) != 0u) ? 1u:0u;
 217              		.loc 1 342 0
 218 0000 044B     		ldr	r3, .L24
 219 0002 1B68     		ldr	r3, [r3]
 220 0004 13F0020F 		tst	r3, #2
 221 0008 01D0     		beq	.L23
 222 000a 0120     		movs	r0, #1
 223 000c 7047     		bx	lr
 224              	.L23:
 225 000e 0020     		movs	r0, #0
 343:Generated_Source\PSoC5/isr_1.c **** }
 226              		.loc 1 343 0
 227 0010 7047     		bx	lr
ARM GAS  C:\Users\pcoud\AppData\Local\Temp\ccfBrHDw.s 			page 11


 228              	.L25:
 229 0012 00BF     		.align	2
 230              	.L24:
 231 0014 00E100E0 		.word	-536813312
 232              		.cfi_endproc
 233              	.LFE72:
 234              		.size	isr_1_GetState, .-isr_1_GetState
 235              		.section	.text.isr_1_Disable,"ax",%progbits
 236              		.align	2
 237              		.global	isr_1_Disable
 238              		.thumb
 239              		.thumb_func
 240              		.type	isr_1_Disable, %function
 241              	isr_1_Disable:
 242              	.LFB73:
 344:Generated_Source\PSoC5/isr_1.c **** 
 345:Generated_Source\PSoC5/isr_1.c **** 
 346:Generated_Source\PSoC5/isr_1.c **** /*******************************************************************************
 347:Generated_Source\PSoC5/isr_1.c **** * Function Name: isr_1_Disable
 348:Generated_Source\PSoC5/isr_1.c **** ********************************************************************************
 349:Generated_Source\PSoC5/isr_1.c **** *
 350:Generated_Source\PSoC5/isr_1.c **** * Summary:
 351:Generated_Source\PSoC5/isr_1.c **** *   Disables the Interrupt in the interrupt controller.
 352:Generated_Source\PSoC5/isr_1.c **** *
 353:Generated_Source\PSoC5/isr_1.c **** * Parameters:
 354:Generated_Source\PSoC5/isr_1.c **** *   None
 355:Generated_Source\PSoC5/isr_1.c **** *
 356:Generated_Source\PSoC5/isr_1.c **** * Return:
 357:Generated_Source\PSoC5/isr_1.c **** *   None
 358:Generated_Source\PSoC5/isr_1.c **** *
 359:Generated_Source\PSoC5/isr_1.c **** *******************************************************************************/
 360:Generated_Source\PSoC5/isr_1.c **** void isr_1_Disable(void)
 361:Generated_Source\PSoC5/isr_1.c **** {
 243              		.loc 1 361 0
 244              		.cfi_startproc
 245              		@ args = 0, pretend = 0, frame = 0
 246              		@ frame_needed = 0, uses_anonymous_args = 0
 247              		@ link register save eliminated.
 362:Generated_Source\PSoC5/isr_1.c ****     /* Disable the general interrupt. */
 363:Generated_Source\PSoC5/isr_1.c ****     *isr_1_INTC_CLR_EN = isr_1__INTC_MASK;
 248              		.loc 1 363 0
 249 0000 0222     		movs	r2, #2
 250 0002 014B     		ldr	r3, .L27
 251 0004 1A60     		str	r2, [r3]
 252 0006 7047     		bx	lr
 253              	.L28:
 254              		.align	2
 255              	.L27:
 256 0008 80E100E0 		.word	-536813184
 257              		.cfi_endproc
 258              	.LFE73:
 259              		.size	isr_1_Disable, .-isr_1_Disable
 260              		.section	.text.isr_1_Start,"ax",%progbits
 261              		.align	2
 262              		.global	isr_1_Start
 263              		.thumb
 264              		.thumb_func
ARM GAS  C:\Users\pcoud\AppData\Local\Temp\ccfBrHDw.s 			page 12


 265              		.type	isr_1_Start, %function
 266              	isr_1_Start:
 267              	.LFB63:
  65:Generated_Source\PSoC5/isr_1.c ****     /* For all we know the interrupt is active. */
 268              		.loc 1 65 0
 269              		.cfi_startproc
 270              		@ args = 0, pretend = 0, frame = 0
 271              		@ frame_needed = 0, uses_anonymous_args = 0
 272 0000 08B5     		push	{r3, lr}
 273              		.cfi_def_cfa_offset 8
 274              		.cfi_offset 3, -8
 275              		.cfi_offset 14, -4
  67:Generated_Source\PSoC5/isr_1.c **** 
 276              		.loc 1 67 0
 277 0002 FFF7FEFF 		bl	isr_1_Disable
 278              	.LVL8:
  70:Generated_Source\PSoC5/isr_1.c **** 
 279              		.loc 1 70 0
 280 0006 0448     		ldr	r0, .L31
 281 0008 FFF7FEFF 		bl	isr_1_SetVector
 282              	.LVL9:
  73:Generated_Source\PSoC5/isr_1.c **** 
 283              		.loc 1 73 0
 284 000c 0720     		movs	r0, #7
 285 000e FFF7FEFF 		bl	isr_1_SetPriority
 286              	.LVL10:
  76:Generated_Source\PSoC5/isr_1.c **** }
 287              		.loc 1 76 0
 288 0012 FFF7FEFF 		bl	isr_1_Enable
 289              	.LVL11:
 290 0016 08BD     		pop	{r3, pc}
 291              	.L32:
 292              		.align	2
 293              	.L31:
 294 0018 00000000 		.word	isr_1_Interrupt
 295              		.cfi_endproc
 296              	.LFE63:
 297              		.size	isr_1_Start, .-isr_1_Start
 298              		.section	.text.isr_1_StartEx,"ax",%progbits
 299              		.align	2
 300              		.global	isr_1_StartEx
 301              		.thumb
 302              		.thumb_func
 303              		.type	isr_1_StartEx, %function
 304              	isr_1_StartEx:
 305              	.LFB64:
 108:Generated_Source\PSoC5/isr_1.c ****     /* For all we know the interrupt is active. */
 306              		.loc 1 108 0
 307              		.cfi_startproc
 308              		@ args = 0, pretend = 0, frame = 0
 309              		@ frame_needed = 0, uses_anonymous_args = 0
 310              	.LVL12:
 311 0000 10B5     		push	{r4, lr}
 312              		.cfi_def_cfa_offset 8
 313              		.cfi_offset 4, -8
 314              		.cfi_offset 14, -4
 315 0002 0446     		mov	r4, r0
ARM GAS  C:\Users\pcoud\AppData\Local\Temp\ccfBrHDw.s 			page 13


 110:Generated_Source\PSoC5/isr_1.c **** 
 316              		.loc 1 110 0
 317 0004 FFF7FEFF 		bl	isr_1_Disable
 318              	.LVL13:
 113:Generated_Source\PSoC5/isr_1.c **** 
 319              		.loc 1 113 0
 320 0008 2046     		mov	r0, r4
 321 000a FFF7FEFF 		bl	isr_1_SetVector
 322              	.LVL14:
 116:Generated_Source\PSoC5/isr_1.c **** 
 323              		.loc 1 116 0
 324 000e 0720     		movs	r0, #7
 325 0010 FFF7FEFF 		bl	isr_1_SetPriority
 326              	.LVL15:
 119:Generated_Source\PSoC5/isr_1.c **** }
 327              		.loc 1 119 0
 328 0014 FFF7FEFF 		bl	isr_1_Enable
 329              	.LVL16:
 330 0018 10BD     		pop	{r4, pc}
 331              		.cfi_endproc
 332              	.LFE64:
 333              		.size	isr_1_StartEx, .-isr_1_StartEx
 334 001a 00BF     		.section	.text.isr_1_Stop,"ax",%progbits
 335              		.align	2
 336              		.global	isr_1_Stop
 337              		.thumb
 338              		.thumb_func
 339              		.type	isr_1_Stop, %function
 340              	isr_1_Stop:
 341              	.LFB65:
 138:Generated_Source\PSoC5/isr_1.c ****     /* Disable this interrupt. */
 342              		.loc 1 138 0
 343              		.cfi_startproc
 344              		@ args = 0, pretend = 0, frame = 0
 345              		@ frame_needed = 0, uses_anonymous_args = 0
 346 0000 08B5     		push	{r3, lr}
 347              		.cfi_def_cfa_offset 8
 348              		.cfi_offset 3, -8
 349              		.cfi_offset 14, -4
 140:Generated_Source\PSoC5/isr_1.c **** 
 350              		.loc 1 140 0
 351 0002 FFF7FEFF 		bl	isr_1_Disable
 352              	.LVL17:
 143:Generated_Source\PSoC5/isr_1.c **** }
 353              		.loc 1 143 0
 354 0006 0248     		ldr	r0, .L37
 355 0008 FFF7FEFF 		bl	isr_1_SetVector
 356              	.LVL18:
 357 000c 08BD     		pop	{r3, pc}
 358              	.L38:
 359 000e 00BF     		.align	2
 360              	.L37:
 361 0010 00000000 		.word	IntDefaultHandler
 362              		.cfi_endproc
 363              	.LFE65:
 364              		.size	isr_1_Stop, .-isr_1_Stop
 365              		.section	.text.isr_1_SetPending,"ax",%progbits
ARM GAS  C:\Users\pcoud\AppData\Local\Temp\ccfBrHDw.s 			page 14


 366              		.align	2
 367              		.global	isr_1_SetPending
 368              		.thumb
 369              		.thumb_func
 370              		.type	isr_1_SetPending, %function
 371              	isr_1_SetPending:
 372              	.LFB74:
 364:Generated_Source\PSoC5/isr_1.c **** }
 365:Generated_Source\PSoC5/isr_1.c **** 
 366:Generated_Source\PSoC5/isr_1.c **** 
 367:Generated_Source\PSoC5/isr_1.c **** /*******************************************************************************
 368:Generated_Source\PSoC5/isr_1.c **** * Function Name: isr_1_SetPending
 369:Generated_Source\PSoC5/isr_1.c **** ********************************************************************************
 370:Generated_Source\PSoC5/isr_1.c **** *
 371:Generated_Source\PSoC5/isr_1.c **** * Summary:
 372:Generated_Source\PSoC5/isr_1.c **** *   Causes the Interrupt to enter the pending state, a software method of
 373:Generated_Source\PSoC5/isr_1.c **** *   generating the interrupt.
 374:Generated_Source\PSoC5/isr_1.c **** *
 375:Generated_Source\PSoC5/isr_1.c **** * Parameters:
 376:Generated_Source\PSoC5/isr_1.c **** *   None
 377:Generated_Source\PSoC5/isr_1.c **** *
 378:Generated_Source\PSoC5/isr_1.c **** * Return:
 379:Generated_Source\PSoC5/isr_1.c **** *   None
 380:Generated_Source\PSoC5/isr_1.c **** *
 381:Generated_Source\PSoC5/isr_1.c **** * Side Effects:
 382:Generated_Source\PSoC5/isr_1.c **** *   If interrupts are enabled and the interrupt is set up properly, the ISR is
 383:Generated_Source\PSoC5/isr_1.c **** *   entered (depending on the priority of this interrupt and other pending 
 384:Generated_Source\PSoC5/isr_1.c **** *   interrupts).
 385:Generated_Source\PSoC5/isr_1.c **** *
 386:Generated_Source\PSoC5/isr_1.c **** *******************************************************************************/
 387:Generated_Source\PSoC5/isr_1.c **** void isr_1_SetPending(void)
 388:Generated_Source\PSoC5/isr_1.c **** {
 373              		.loc 1 388 0
 374              		.cfi_startproc
 375              		@ args = 0, pretend = 0, frame = 0
 376              		@ frame_needed = 0, uses_anonymous_args = 0
 377              		@ link register save eliminated.
 389:Generated_Source\PSoC5/isr_1.c ****     *isr_1_INTC_SET_PD = isr_1__INTC_MASK;
 378              		.loc 1 389 0
 379 0000 0222     		movs	r2, #2
 380 0002 014B     		ldr	r3, .L40
 381 0004 1A60     		str	r2, [r3]
 382 0006 7047     		bx	lr
 383              	.L41:
 384              		.align	2
 385              	.L40:
 386 0008 00E200E0 		.word	-536813056
 387              		.cfi_endproc
 388              	.LFE74:
 389              		.size	isr_1_SetPending, .-isr_1_SetPending
 390              		.section	.text.isr_1_ClearPending,"ax",%progbits
 391              		.align	2
 392              		.global	isr_1_ClearPending
 393              		.thumb
 394              		.thumb_func
 395              		.type	isr_1_ClearPending, %function
 396              	isr_1_ClearPending:
ARM GAS  C:\Users\pcoud\AppData\Local\Temp\ccfBrHDw.s 			page 15


 397              	.LFB75:
 390:Generated_Source\PSoC5/isr_1.c **** }
 391:Generated_Source\PSoC5/isr_1.c **** 
 392:Generated_Source\PSoC5/isr_1.c **** 
 393:Generated_Source\PSoC5/isr_1.c **** /*******************************************************************************
 394:Generated_Source\PSoC5/isr_1.c **** * Function Name: isr_1_ClearPending
 395:Generated_Source\PSoC5/isr_1.c **** ********************************************************************************
 396:Generated_Source\PSoC5/isr_1.c **** *
 397:Generated_Source\PSoC5/isr_1.c **** * Summary:
 398:Generated_Source\PSoC5/isr_1.c **** *   Clears a pending interrupt in the interrupt controller.
 399:Generated_Source\PSoC5/isr_1.c **** *
 400:Generated_Source\PSoC5/isr_1.c **** *   Note Some interrupt sources are clear-on-read and require the block 
 401:Generated_Source\PSoC5/isr_1.c **** *   interrupt/status register to be read/cleared with the appropriate block API 
 402:Generated_Source\PSoC5/isr_1.c **** *   (GPIO, UART, and so on). Otherwise the ISR will continue to remain in 
 403:Generated_Source\PSoC5/isr_1.c **** *   pending state even though the interrupt itself is cleared using this API.
 404:Generated_Source\PSoC5/isr_1.c **** *
 405:Generated_Source\PSoC5/isr_1.c **** * Parameters:
 406:Generated_Source\PSoC5/isr_1.c **** *   None
 407:Generated_Source\PSoC5/isr_1.c **** *
 408:Generated_Source\PSoC5/isr_1.c **** * Return:
 409:Generated_Source\PSoC5/isr_1.c **** *   None
 410:Generated_Source\PSoC5/isr_1.c **** *
 411:Generated_Source\PSoC5/isr_1.c **** *******************************************************************************/
 412:Generated_Source\PSoC5/isr_1.c **** void isr_1_ClearPending(void)
 413:Generated_Source\PSoC5/isr_1.c **** {
 398              		.loc 1 413 0
 399              		.cfi_startproc
 400              		@ args = 0, pretend = 0, frame = 0
 401              		@ frame_needed = 0, uses_anonymous_args = 0
 402              		@ link register save eliminated.
 414:Generated_Source\PSoC5/isr_1.c ****     *isr_1_INTC_CLR_PD = isr_1__INTC_MASK;
 403              		.loc 1 414 0
 404 0000 0222     		movs	r2, #2
 405 0002 014B     		ldr	r3, .L43
 406 0004 1A60     		str	r2, [r3]
 407 0006 7047     		bx	lr
 408              	.L44:
 409              		.align	2
 410              	.L43:
 411 0008 80E200E0 		.word	-536812928
 412              		.cfi_endproc
 413              	.LFE75:
 414              		.size	isr_1_ClearPending, .-isr_1_ClearPending
 415              		.text
 416              	.Letext0:
 417              		.file 2 "c:\\program files (x86)\\cypress\\psoc creator\\4.1\\psoc creator\\import\\gnu\\arm\\5.4.
 418              		.file 3 "c:\\program files (x86)\\cypress\\psoc creator\\4.1\\psoc creator\\import\\gnu\\arm\\5.4.
 419              		.file 4 "Generated_Source\\PSoC5/cytypes.h"
 420              		.file 5 "Generated_Source\\PSoC5/core_cm3.h"
 421              		.file 6 "Generated_Source\\PSoC5\\UART_SIG.h"