ARM GAS  C:\Users\pcoud\AppData\Local\Temp\ccW2G5Ui.s 			page 1


   1              		.syntax unified
   2              		.cpu cortex-m3
   3              		.fpu softvfp
   4              		.eabi_attribute 20, 1
   5              		.eabi_attribute 21, 1
   6              		.eabi_attribute 23, 3
   7              		.eabi_attribute 24, 1
   8              		.eabi_attribute 25, 1
   9              		.eabi_attribute 26, 1
  10              		.eabi_attribute 30, 1
  11              		.eabi_attribute 34, 1
  12              		.eabi_attribute 18, 4
  13              		.thumb
  14              		.syntax unified
  15              		.file	"isr_serial.c"
  16              		.text
  17              	.Ltext0:
  18              		.cfi_sections	.debug_frame
  19              		.section	.text.isr_serial_Interrupt,"ax",%progbits
  20              		.align	2
  21              		.global	isr_serial_Interrupt
  22              		.thumb
  23              		.thumb_func
  24              		.type	isr_serial_Interrupt, %function
  25              	isr_serial_Interrupt:
  26              	.LFB66:
  27              		.file 1 "Generated_Source\\PSoC5\\isr_serial.c"
   1:Generated_Source\PSoC5/isr_serial.c **** /*******************************************************************************
   2:Generated_Source\PSoC5/isr_serial.c **** * File Name: isr_serial.c  
   3:Generated_Source\PSoC5/isr_serial.c **** * Version 1.70
   4:Generated_Source\PSoC5/isr_serial.c **** *
   5:Generated_Source\PSoC5/isr_serial.c **** *  Description:
   6:Generated_Source\PSoC5/isr_serial.c **** *   API for controlling the state of an interrupt.
   7:Generated_Source\PSoC5/isr_serial.c **** *
   8:Generated_Source\PSoC5/isr_serial.c **** *
   9:Generated_Source\PSoC5/isr_serial.c **** *  Note:
  10:Generated_Source\PSoC5/isr_serial.c **** *
  11:Generated_Source\PSoC5/isr_serial.c **** ********************************************************************************
  12:Generated_Source\PSoC5/isr_serial.c **** * Copyright 2008-2015, Cypress Semiconductor Corporation.  All rights reserved.
  13:Generated_Source\PSoC5/isr_serial.c **** * You may use this file only in accordance with the license, terms, conditions, 
  14:Generated_Source\PSoC5/isr_serial.c **** * disclaimers, and limitations in the end user license agreement accompanying 
  15:Generated_Source\PSoC5/isr_serial.c **** * the software package with which this file was provided.
  16:Generated_Source\PSoC5/isr_serial.c **** *******************************************************************************/
  17:Generated_Source\PSoC5/isr_serial.c **** 
  18:Generated_Source\PSoC5/isr_serial.c **** 
  19:Generated_Source\PSoC5/isr_serial.c **** #include <cydevice_trm.h>
  20:Generated_Source\PSoC5/isr_serial.c **** #include <CyLib.h>
  21:Generated_Source\PSoC5/isr_serial.c **** #include <isr_serial.h>
  22:Generated_Source\PSoC5/isr_serial.c **** #include "cyapicallbacks.h"
  23:Generated_Source\PSoC5/isr_serial.c **** 
  24:Generated_Source\PSoC5/isr_serial.c **** #if !defined(isr_serial__REMOVED) /* Check for removal by optimization */
  25:Generated_Source\PSoC5/isr_serial.c **** 
  26:Generated_Source\PSoC5/isr_serial.c **** /*******************************************************************************
  27:Generated_Source\PSoC5/isr_serial.c **** *  Place your includes, defines and code here 
  28:Generated_Source\PSoC5/isr_serial.c **** ********************************************************************************/
  29:Generated_Source\PSoC5/isr_serial.c **** /* `#START isr_serial_intc` */
  30:Generated_Source\PSoC5/isr_serial.c **** #include <project.h>
ARM GAS  C:\Users\pcoud\AppData\Local\Temp\ccW2G5Ui.s 			page 2


  31:Generated_Source\PSoC5/isr_serial.c **** extern uint8 cptcar; 
  32:Generated_Source\PSoC5/isr_serial.c **** extern uint8 phase;
  33:Generated_Source\PSoC5/isr_serial.c **** extern char message[35];
  34:Generated_Source\PSoC5/isr_serial.c **** extern char begin[15],resp[35];
  35:Generated_Source\PSoC5/isr_serial.c **** /* `#END` */
  36:Generated_Source\PSoC5/isr_serial.c **** 
  37:Generated_Source\PSoC5/isr_serial.c **** #ifndef CYINT_IRQ_BASE
  38:Generated_Source\PSoC5/isr_serial.c **** #define CYINT_IRQ_BASE      16
  39:Generated_Source\PSoC5/isr_serial.c **** #endif /* CYINT_IRQ_BASE */
  40:Generated_Source\PSoC5/isr_serial.c **** #ifndef CYINT_VECT_TABLE
  41:Generated_Source\PSoC5/isr_serial.c **** #define CYINT_VECT_TABLE    ((cyisraddress **) CYREG_NVIC_VECT_OFFSET)
  42:Generated_Source\PSoC5/isr_serial.c **** #endif /* CYINT_VECT_TABLE */
  43:Generated_Source\PSoC5/isr_serial.c **** 
  44:Generated_Source\PSoC5/isr_serial.c **** /* Declared in startup, used to set unused interrupts to. */
  45:Generated_Source\PSoC5/isr_serial.c **** CY_ISR_PROTO(IntDefaultHandler);
  46:Generated_Source\PSoC5/isr_serial.c **** 
  47:Generated_Source\PSoC5/isr_serial.c **** 
  48:Generated_Source\PSoC5/isr_serial.c **** /*******************************************************************************
  49:Generated_Source\PSoC5/isr_serial.c **** * Function Name: isr_serial_Start
  50:Generated_Source\PSoC5/isr_serial.c **** ********************************************************************************
  51:Generated_Source\PSoC5/isr_serial.c **** *
  52:Generated_Source\PSoC5/isr_serial.c **** * Summary:
  53:Generated_Source\PSoC5/isr_serial.c **** *  Set up the interrupt and enable it. This function disables the interrupt, 
  54:Generated_Source\PSoC5/isr_serial.c **** *  sets the default interrupt vector, sets the priority from the value in the
  55:Generated_Source\PSoC5/isr_serial.c **** *  Design Wide Resources Interrupt Editor, then enables the interrupt to the 
  56:Generated_Source\PSoC5/isr_serial.c **** *  interrupt controller.
  57:Generated_Source\PSoC5/isr_serial.c **** *
  58:Generated_Source\PSoC5/isr_serial.c **** * Parameters:  
  59:Generated_Source\PSoC5/isr_serial.c **** *   None
  60:Generated_Source\PSoC5/isr_serial.c **** *
  61:Generated_Source\PSoC5/isr_serial.c **** * Return:
  62:Generated_Source\PSoC5/isr_serial.c **** *   None
  63:Generated_Source\PSoC5/isr_serial.c **** *
  64:Generated_Source\PSoC5/isr_serial.c **** *******************************************************************************/
  65:Generated_Source\PSoC5/isr_serial.c **** void isr_serial_Start(void)
  66:Generated_Source\PSoC5/isr_serial.c **** {
  67:Generated_Source\PSoC5/isr_serial.c ****     /* For all we know the interrupt is active. */
  68:Generated_Source\PSoC5/isr_serial.c ****     isr_serial_Disable();
  69:Generated_Source\PSoC5/isr_serial.c **** 
  70:Generated_Source\PSoC5/isr_serial.c ****     /* Set the ISR to point to the isr_serial Interrupt. */
  71:Generated_Source\PSoC5/isr_serial.c ****     isr_serial_SetVector(&isr_serial_Interrupt);
  72:Generated_Source\PSoC5/isr_serial.c **** 
  73:Generated_Source\PSoC5/isr_serial.c ****     /* Set the priority. */
  74:Generated_Source\PSoC5/isr_serial.c ****     isr_serial_SetPriority((uint8)isr_serial_INTC_PRIOR_NUMBER);
  75:Generated_Source\PSoC5/isr_serial.c **** 
  76:Generated_Source\PSoC5/isr_serial.c ****     /* Enable it. */
  77:Generated_Source\PSoC5/isr_serial.c ****     isr_serial_Enable();
  78:Generated_Source\PSoC5/isr_serial.c **** }
  79:Generated_Source\PSoC5/isr_serial.c **** 
  80:Generated_Source\PSoC5/isr_serial.c **** 
  81:Generated_Source\PSoC5/isr_serial.c **** /*******************************************************************************
  82:Generated_Source\PSoC5/isr_serial.c **** * Function Name: isr_serial_StartEx
  83:Generated_Source\PSoC5/isr_serial.c **** ********************************************************************************
  84:Generated_Source\PSoC5/isr_serial.c **** *
  85:Generated_Source\PSoC5/isr_serial.c **** * Summary:
  86:Generated_Source\PSoC5/isr_serial.c **** *  Sets up the interrupt and enables it. This function disables the interrupt,
  87:Generated_Source\PSoC5/isr_serial.c **** *  sets the interrupt vector based on the address passed in, sets the priority 
ARM GAS  C:\Users\pcoud\AppData\Local\Temp\ccW2G5Ui.s 			page 3


  88:Generated_Source\PSoC5/isr_serial.c **** *  from the value in the Design Wide Resources Interrupt Editor, then enables 
  89:Generated_Source\PSoC5/isr_serial.c **** *  the interrupt to the interrupt controller.
  90:Generated_Source\PSoC5/isr_serial.c **** *  
  91:Generated_Source\PSoC5/isr_serial.c **** *  When defining ISR functions, the CY_ISR and CY_ISR_PROTO macros should be 
  92:Generated_Source\PSoC5/isr_serial.c **** *  used to provide consistent definition across compilers:
  93:Generated_Source\PSoC5/isr_serial.c **** *  
  94:Generated_Source\PSoC5/isr_serial.c **** *  Function definition example:
  95:Generated_Source\PSoC5/isr_serial.c **** *   CY_ISR(MyISR)
  96:Generated_Source\PSoC5/isr_serial.c **** *   {
  97:Generated_Source\PSoC5/isr_serial.c **** *   }
  98:Generated_Source\PSoC5/isr_serial.c **** *   Function prototype example:
  99:Generated_Source\PSoC5/isr_serial.c **** *   CY_ISR_PROTO(MyISR);
 100:Generated_Source\PSoC5/isr_serial.c **** *
 101:Generated_Source\PSoC5/isr_serial.c **** * Parameters:  
 102:Generated_Source\PSoC5/isr_serial.c **** *   address: Address of the ISR to set in the interrupt vector table.
 103:Generated_Source\PSoC5/isr_serial.c **** *
 104:Generated_Source\PSoC5/isr_serial.c **** * Return:
 105:Generated_Source\PSoC5/isr_serial.c **** *   None
 106:Generated_Source\PSoC5/isr_serial.c **** *
 107:Generated_Source\PSoC5/isr_serial.c **** *******************************************************************************/
 108:Generated_Source\PSoC5/isr_serial.c **** void isr_serial_StartEx(cyisraddress address)
 109:Generated_Source\PSoC5/isr_serial.c **** {
 110:Generated_Source\PSoC5/isr_serial.c ****     /* For all we know the interrupt is active. */
 111:Generated_Source\PSoC5/isr_serial.c ****     isr_serial_Disable();
 112:Generated_Source\PSoC5/isr_serial.c **** 
 113:Generated_Source\PSoC5/isr_serial.c ****     /* Set the ISR to point to the isr_serial Interrupt. */
 114:Generated_Source\PSoC5/isr_serial.c ****     isr_serial_SetVector(address);
 115:Generated_Source\PSoC5/isr_serial.c **** 
 116:Generated_Source\PSoC5/isr_serial.c ****     /* Set the priority. */
 117:Generated_Source\PSoC5/isr_serial.c ****     isr_serial_SetPriority((uint8)isr_serial_INTC_PRIOR_NUMBER);
 118:Generated_Source\PSoC5/isr_serial.c **** 
 119:Generated_Source\PSoC5/isr_serial.c ****     /* Enable it. */
 120:Generated_Source\PSoC5/isr_serial.c ****     isr_serial_Enable();
 121:Generated_Source\PSoC5/isr_serial.c **** }
 122:Generated_Source\PSoC5/isr_serial.c **** 
 123:Generated_Source\PSoC5/isr_serial.c **** 
 124:Generated_Source\PSoC5/isr_serial.c **** /*******************************************************************************
 125:Generated_Source\PSoC5/isr_serial.c **** * Function Name: isr_serial_Stop
 126:Generated_Source\PSoC5/isr_serial.c **** ********************************************************************************
 127:Generated_Source\PSoC5/isr_serial.c **** *
 128:Generated_Source\PSoC5/isr_serial.c **** * Summary:
 129:Generated_Source\PSoC5/isr_serial.c **** *   Disables and removes the interrupt.
 130:Generated_Source\PSoC5/isr_serial.c **** *
 131:Generated_Source\PSoC5/isr_serial.c **** * Parameters:  
 132:Generated_Source\PSoC5/isr_serial.c **** *   None
 133:Generated_Source\PSoC5/isr_serial.c **** *
 134:Generated_Source\PSoC5/isr_serial.c **** * Return:
 135:Generated_Source\PSoC5/isr_serial.c **** *   None
 136:Generated_Source\PSoC5/isr_serial.c **** *
 137:Generated_Source\PSoC5/isr_serial.c **** *******************************************************************************/
 138:Generated_Source\PSoC5/isr_serial.c **** void isr_serial_Stop(void)
 139:Generated_Source\PSoC5/isr_serial.c **** {
 140:Generated_Source\PSoC5/isr_serial.c ****     /* Disable this interrupt. */
 141:Generated_Source\PSoC5/isr_serial.c ****     isr_serial_Disable();
 142:Generated_Source\PSoC5/isr_serial.c **** 
 143:Generated_Source\PSoC5/isr_serial.c ****     /* Set the ISR to point to the passive one. */
 144:Generated_Source\PSoC5/isr_serial.c ****     isr_serial_SetVector(&IntDefaultHandler);
ARM GAS  C:\Users\pcoud\AppData\Local\Temp\ccW2G5Ui.s 			page 4


 145:Generated_Source\PSoC5/isr_serial.c **** }
 146:Generated_Source\PSoC5/isr_serial.c **** 
 147:Generated_Source\PSoC5/isr_serial.c **** 
 148:Generated_Source\PSoC5/isr_serial.c **** /*******************************************************************************
 149:Generated_Source\PSoC5/isr_serial.c **** * Function Name: isr_serial_Interrupt
 150:Generated_Source\PSoC5/isr_serial.c **** ********************************************************************************
 151:Generated_Source\PSoC5/isr_serial.c **** *
 152:Generated_Source\PSoC5/isr_serial.c **** * Summary:
 153:Generated_Source\PSoC5/isr_serial.c **** *   The default Interrupt Service Routine for isr_serial.
 154:Generated_Source\PSoC5/isr_serial.c **** *
 155:Generated_Source\PSoC5/isr_serial.c **** *   Add custom code between the coments to keep the next version of this file
 156:Generated_Source\PSoC5/isr_serial.c **** *   from over writting your code.
 157:Generated_Source\PSoC5/isr_serial.c **** *
 158:Generated_Source\PSoC5/isr_serial.c **** * Parameters:  
 159:Generated_Source\PSoC5/isr_serial.c **** *
 160:Generated_Source\PSoC5/isr_serial.c **** * Return:
 161:Generated_Source\PSoC5/isr_serial.c **** *   None
 162:Generated_Source\PSoC5/isr_serial.c **** *
 163:Generated_Source\PSoC5/isr_serial.c **** *******************************************************************************/
 164:Generated_Source\PSoC5/isr_serial.c **** CY_ISR(isr_serial_Interrupt)
 165:Generated_Source\PSoC5/isr_serial.c **** {
  28              		.loc 1 165 0
  29              		.cfi_startproc
  30              		@ args = 0, pretend = 0, frame = 0
  31              		@ frame_needed = 0, uses_anonymous_args = 0
  32 0000 38B5     		push	{r3, r4, r5, lr}
  33              		.cfi_def_cfa_offset 16
  34              		.cfi_offset 3, -16
  35              		.cfi_offset 4, -12
  36              		.cfi_offset 5, -8
  37              		.cfi_offset 14, -4
 166:Generated_Source\PSoC5/isr_serial.c ****     #ifdef isr_serial_INTERRUPT_INTERRUPT_CALLBACK
 167:Generated_Source\PSoC5/isr_serial.c ****         isr_serial_Interrupt_InterruptCallback();
 168:Generated_Source\PSoC5/isr_serial.c ****     #endif /* isr_serial_INTERRUPT_INTERRUPT_CALLBACK */ 
 169:Generated_Source\PSoC5/isr_serial.c **** 
 170:Generated_Source\PSoC5/isr_serial.c ****     /*  Place your Interrupt code here. */
 171:Generated_Source\PSoC5/isr_serial.c ****     /* `#START isr_serial_Interrupt` */
 172:Generated_Source\PSoC5/isr_serial.c ****     uint8 i;
 173:Generated_Source\PSoC5/isr_serial.c ****     message[cptcar]=UART_SIG_GetChar() ;
  38              		.loc 1 173 0
  39 0002 194C     		ldr	r4, .L12
  40 0004 2578     		ldrb	r5, [r4]	@ zero_extendqisi2
  41 0006 FFF7FEFF 		bl	UART_SIG_GetChar
  42              	.LVL0:
  43 000a 184B     		ldr	r3, .L12+4
  44 000c 5855     		strb	r0, [r3, r5]
 174:Generated_Source\PSoC5/isr_serial.c ****     if (message[cptcar]==0xA) {
  45              		.loc 1 174 0
  46 000e 2278     		ldrb	r2, [r4]	@ zero_extendqisi2
  47 0010 9B5C     		ldrb	r3, [r3, r2]	@ zero_extendqisi2
  48 0012 0A2B     		cmp	r3, #10
  49 0014 22D1     		bne	.L2
 175:Generated_Source\PSoC5/isr_serial.c ****         if (phase==0) {for(i=0;i<=cptcar;i++){begin[i]=message[i];};}
  50              		.loc 1 175 0
  51 0016 164B     		ldr	r3, .L12+8
  52 0018 1C78     		ldrb	r4, [r3]	@ zero_extendqisi2
  53 001a 3CB1     		cbz	r4, .L9
ARM GAS  C:\Users\pcoud\AppData\Local\Temp\ccW2G5Ui.s 			page 5


  54 001c 09E0     		b	.L4
  55              	.LVL1:
  56              	.L5:
  57              		.loc 1 175 0 is_stmt 0 discriminator 4
  58 001e 1349     		ldr	r1, .L12+4
  59 0020 C85C     		ldrb	r0, [r1, r3]	@ zero_extendqisi2
  60 0022 1449     		ldr	r1, .L12+12
  61 0024 C854     		strb	r0, [r1, r3]
  62 0026 0133     		adds	r3, r3, #1
  63              	.LVL2:
  64 0028 DBB2     		uxtb	r3, r3
  65              	.LVL3:
  66 002a 00E0     		b	.L3
  67              	.LVL4:
  68              	.L9:
  69 002c 0023     		movs	r3, #0
  70              	.L3:
  71              	.LVL5:
  72              		.loc 1 175 0 discriminator 2
  73 002e 9342     		cmp	r3, r2
  74 0030 F5D9     		bls	.L5
  75              	.LVL6:
  76              	.L4:
 176:Generated_Source\PSoC5/isr_serial.c ****         if (phase==1) {for(i=0;i<=cptcar;i++){resp[i]=message[i];};}
  77              		.loc 1 176 0 is_stmt 1
  78 0032 012C     		cmp	r4, #1
  79 0034 0AD1     		bne	.L7
  80 0036 06E0     		b	.L10
  81              	.LVL7:
  82              	.L8:
  83              		.loc 1 176 0 is_stmt 0 discriminator 4
  84 0038 0C49     		ldr	r1, .L12+4
  85 003a C85C     		ldrb	r0, [r1, r3]	@ zero_extendqisi2
  86 003c 0E49     		ldr	r1, .L12+16
  87 003e C854     		strb	r0, [r1, r3]
  88 0040 0133     		adds	r3, r3, #1
  89              	.LVL8:
  90 0042 DBB2     		uxtb	r3, r3
  91              	.LVL9:
  92 0044 00E0     		b	.L6
  93              	.LVL10:
  94              	.L10:
  95 0046 0023     		movs	r3, #0
  96              	.L6:
  97              	.LVL11:
  98              		.loc 1 176 0 discriminator 2
  99 0048 9342     		cmp	r3, r2
 100 004a F5D9     		bls	.L8
 101              	.LVL12:
 102              	.L7:
 177:Generated_Source\PSoC5/isr_serial.c ****         cptcar=0;
 103              		.loc 1 177 0 is_stmt 1
 104 004c 0022     		movs	r2, #0
 105 004e 064B     		ldr	r3, .L12
 106 0050 1A70     		strb	r2, [r3]
 178:Generated_Source\PSoC5/isr_serial.c ****         phase++;
 107              		.loc 1 178 0
ARM GAS  C:\Users\pcoud\AppData\Local\Temp\ccW2G5Ui.s 			page 6


 108 0052 0134     		adds	r4, r4, #1
 109 0054 064B     		ldr	r3, .L12+8
 110 0056 1C70     		strb	r4, [r3]
 179:Generated_Source\PSoC5/isr_serial.c ****         UART_SIG_ClearRxBuffer();    //Efface le buffer de Rx
 111              		.loc 1 179 0
 112 0058 FFF7FEFF 		bl	UART_SIG_ClearRxBuffer
 113              	.LVL13:
 114              	.L2:
 180:Generated_Source\PSoC5/isr_serial.c ****         }
 181:Generated_Source\PSoC5/isr_serial.c ****     cptcar++;
 115              		.loc 1 181 0
 116 005c 024A     		ldr	r2, .L12
 117 005e 1378     		ldrb	r3, [r2]	@ zero_extendqisi2
 118 0060 0133     		adds	r3, r3, #1
 119 0062 1370     		strb	r3, [r2]
 120 0064 38BD     		pop	{r3, r4, r5, pc}
 121              	.L13:
 122 0066 00BF     		.align	2
 123              	.L12:
 124 0068 00000000 		.word	cptcar
 125 006c 00000000 		.word	message
 126 0070 00000000 		.word	phase
 127 0074 00000000 		.word	begin
 128 0078 00000000 		.word	resp
 129              		.cfi_endproc
 130              	.LFE66:
 131              		.size	isr_serial_Interrupt, .-isr_serial_Interrupt
 132              		.section	.text.isr_serial_SetVector,"ax",%progbits
 133              		.align	2
 134              		.global	isr_serial_SetVector
 135              		.thumb
 136              		.thumb_func
 137              		.type	isr_serial_SetVector, %function
 138              	isr_serial_SetVector:
 139              	.LFB67:
 182:Generated_Source\PSoC5/isr_serial.c **** 
 183:Generated_Source\PSoC5/isr_serial.c ****     /* `#END` */
 184:Generated_Source\PSoC5/isr_serial.c **** }
 185:Generated_Source\PSoC5/isr_serial.c **** 
 186:Generated_Source\PSoC5/isr_serial.c **** 
 187:Generated_Source\PSoC5/isr_serial.c **** /*******************************************************************************
 188:Generated_Source\PSoC5/isr_serial.c **** * Function Name: isr_serial_SetVector
 189:Generated_Source\PSoC5/isr_serial.c **** ********************************************************************************
 190:Generated_Source\PSoC5/isr_serial.c **** *
 191:Generated_Source\PSoC5/isr_serial.c **** * Summary:
 192:Generated_Source\PSoC5/isr_serial.c **** *   Change the ISR vector for the Interrupt. Note calling isr_serial_Start
 193:Generated_Source\PSoC5/isr_serial.c **** *   will override any effect this method would have had. To set the vector 
 194:Generated_Source\PSoC5/isr_serial.c **** *   before the component has been started use isr_serial_StartEx instead.
 195:Generated_Source\PSoC5/isr_serial.c **** * 
 196:Generated_Source\PSoC5/isr_serial.c **** *   When defining ISR functions, the CY_ISR and CY_ISR_PROTO macros should be 
 197:Generated_Source\PSoC5/isr_serial.c **** *   used to provide consistent definition across compilers:
 198:Generated_Source\PSoC5/isr_serial.c **** *
 199:Generated_Source\PSoC5/isr_serial.c **** *   Function definition example:
 200:Generated_Source\PSoC5/isr_serial.c **** *   CY_ISR(MyISR)
 201:Generated_Source\PSoC5/isr_serial.c **** *   {
 202:Generated_Source\PSoC5/isr_serial.c **** *   }
 203:Generated_Source\PSoC5/isr_serial.c **** *
ARM GAS  C:\Users\pcoud\AppData\Local\Temp\ccW2G5Ui.s 			page 7


 204:Generated_Source\PSoC5/isr_serial.c **** *   Function prototype example:
 205:Generated_Source\PSoC5/isr_serial.c **** *     CY_ISR_PROTO(MyISR);
 206:Generated_Source\PSoC5/isr_serial.c **** *
 207:Generated_Source\PSoC5/isr_serial.c **** * Parameters:
 208:Generated_Source\PSoC5/isr_serial.c **** *   address: Address of the ISR to set in the interrupt vector table.
 209:Generated_Source\PSoC5/isr_serial.c **** *
 210:Generated_Source\PSoC5/isr_serial.c **** * Return:
 211:Generated_Source\PSoC5/isr_serial.c **** *   None
 212:Generated_Source\PSoC5/isr_serial.c **** *
 213:Generated_Source\PSoC5/isr_serial.c **** *******************************************************************************/
 214:Generated_Source\PSoC5/isr_serial.c **** void isr_serial_SetVector(cyisraddress address)
 215:Generated_Source\PSoC5/isr_serial.c **** {
 140              		.loc 1 215 0
 141              		.cfi_startproc
 142              		@ args = 0, pretend = 0, frame = 0
 143              		@ frame_needed = 0, uses_anonymous_args = 0
 144              		@ link register save eliminated.
 145              	.LVL14:
 216:Generated_Source\PSoC5/isr_serial.c ****     cyisraddress * ramVectorTable;
 217:Generated_Source\PSoC5/isr_serial.c **** 
 218:Generated_Source\PSoC5/isr_serial.c ****     ramVectorTable = (cyisraddress *) *CYINT_VECT_TABLE;
 146              		.loc 1 218 0
 147 0000 014B     		ldr	r3, .L15
 148 0002 1B68     		ldr	r3, [r3]
 149              	.LVL15:
 219:Generated_Source\PSoC5/isr_serial.c **** 
 220:Generated_Source\PSoC5/isr_serial.c ****     ramVectorTable[CYINT_IRQ_BASE + (uint32)isr_serial__INTC_NUMBER] = address;
 150              		.loc 1 220 0
 151 0004 9864     		str	r0, [r3, #72]
 152 0006 7047     		bx	lr
 153              	.L16:
 154              		.align	2
 155              	.L15:
 156 0008 08ED00E0 		.word	-536810232
 157              		.cfi_endproc
 158              	.LFE67:
 159              		.size	isr_serial_SetVector, .-isr_serial_SetVector
 160              		.section	.text.isr_serial_GetVector,"ax",%progbits
 161              		.align	2
 162              		.global	isr_serial_GetVector
 163              		.thumb
 164              		.thumb_func
 165              		.type	isr_serial_GetVector, %function
 166              	isr_serial_GetVector:
 167              	.LFB68:
 221:Generated_Source\PSoC5/isr_serial.c **** }
 222:Generated_Source\PSoC5/isr_serial.c **** 
 223:Generated_Source\PSoC5/isr_serial.c **** 
 224:Generated_Source\PSoC5/isr_serial.c **** /*******************************************************************************
 225:Generated_Source\PSoC5/isr_serial.c **** * Function Name: isr_serial_GetVector
 226:Generated_Source\PSoC5/isr_serial.c **** ********************************************************************************
 227:Generated_Source\PSoC5/isr_serial.c **** *
 228:Generated_Source\PSoC5/isr_serial.c **** * Summary:
 229:Generated_Source\PSoC5/isr_serial.c **** *   Gets the "address" of the current ISR vector for the Interrupt.
 230:Generated_Source\PSoC5/isr_serial.c **** *
 231:Generated_Source\PSoC5/isr_serial.c **** * Parameters:
 232:Generated_Source\PSoC5/isr_serial.c **** *   None
ARM GAS  C:\Users\pcoud\AppData\Local\Temp\ccW2G5Ui.s 			page 8


 233:Generated_Source\PSoC5/isr_serial.c **** *
 234:Generated_Source\PSoC5/isr_serial.c **** * Return:
 235:Generated_Source\PSoC5/isr_serial.c **** *   Address of the ISR in the interrupt vector table.
 236:Generated_Source\PSoC5/isr_serial.c **** *
 237:Generated_Source\PSoC5/isr_serial.c **** *******************************************************************************/
 238:Generated_Source\PSoC5/isr_serial.c **** cyisraddress isr_serial_GetVector(void)
 239:Generated_Source\PSoC5/isr_serial.c **** {
 168              		.loc 1 239 0
 169              		.cfi_startproc
 170              		@ args = 0, pretend = 0, frame = 0
 171              		@ frame_needed = 0, uses_anonymous_args = 0
 172              		@ link register save eliminated.
 240:Generated_Source\PSoC5/isr_serial.c ****     cyisraddress * ramVectorTable;
 241:Generated_Source\PSoC5/isr_serial.c **** 
 242:Generated_Source\PSoC5/isr_serial.c ****     ramVectorTable = (cyisraddress *) *CYINT_VECT_TABLE;
 173              		.loc 1 242 0
 174 0000 014B     		ldr	r3, .L18
 175 0002 1B68     		ldr	r3, [r3]
 176              	.LVL16:
 243:Generated_Source\PSoC5/isr_serial.c **** 
 244:Generated_Source\PSoC5/isr_serial.c ****     return ramVectorTable[CYINT_IRQ_BASE + (uint32)isr_serial__INTC_NUMBER];
 245:Generated_Source\PSoC5/isr_serial.c **** }
 177              		.loc 1 245 0
 178 0004 986C     		ldr	r0, [r3, #72]
 179 0006 7047     		bx	lr
 180              	.L19:
 181              		.align	2
 182              	.L18:
 183 0008 08ED00E0 		.word	-536810232
 184              		.cfi_endproc
 185              	.LFE68:
 186              		.size	isr_serial_GetVector, .-isr_serial_GetVector
 187              		.section	.text.isr_serial_SetPriority,"ax",%progbits
 188              		.align	2
 189              		.global	isr_serial_SetPriority
 190              		.thumb
 191              		.thumb_func
 192              		.type	isr_serial_SetPriority, %function
 193              	isr_serial_SetPriority:
 194              	.LFB69:
 246:Generated_Source\PSoC5/isr_serial.c **** 
 247:Generated_Source\PSoC5/isr_serial.c **** 
 248:Generated_Source\PSoC5/isr_serial.c **** /*******************************************************************************
 249:Generated_Source\PSoC5/isr_serial.c **** * Function Name: isr_serial_SetPriority
 250:Generated_Source\PSoC5/isr_serial.c **** ********************************************************************************
 251:Generated_Source\PSoC5/isr_serial.c **** *
 252:Generated_Source\PSoC5/isr_serial.c **** * Summary:
 253:Generated_Source\PSoC5/isr_serial.c **** *   Sets the Priority of the Interrupt. 
 254:Generated_Source\PSoC5/isr_serial.c **** *
 255:Generated_Source\PSoC5/isr_serial.c **** *   Note calling isr_serial_Start or isr_serial_StartEx will 
 256:Generated_Source\PSoC5/isr_serial.c **** *   override any effect this API would have had. This API should only be called
 257:Generated_Source\PSoC5/isr_serial.c **** *   after isr_serial_Start or isr_serial_StartEx has been called. 
 258:Generated_Source\PSoC5/isr_serial.c **** *   To set the initial priority for the component, use the Design-Wide Resources
 259:Generated_Source\PSoC5/isr_serial.c **** *   Interrupt Editor.
 260:Generated_Source\PSoC5/isr_serial.c **** *
 261:Generated_Source\PSoC5/isr_serial.c **** *   Note This API has no effect on Non-maskable interrupt NMI).
 262:Generated_Source\PSoC5/isr_serial.c **** *
ARM GAS  C:\Users\pcoud\AppData\Local\Temp\ccW2G5Ui.s 			page 9


 263:Generated_Source\PSoC5/isr_serial.c **** * Parameters:
 264:Generated_Source\PSoC5/isr_serial.c **** *   priority: Priority of the interrupt, 0 being the highest priority
 265:Generated_Source\PSoC5/isr_serial.c **** *             PSoC 3 and PSoC 5LP: Priority is from 0 to 7.
 266:Generated_Source\PSoC5/isr_serial.c **** *             PSoC 4: Priority is from 0 to 3.
 267:Generated_Source\PSoC5/isr_serial.c **** *
 268:Generated_Source\PSoC5/isr_serial.c **** * Return:
 269:Generated_Source\PSoC5/isr_serial.c **** *   None
 270:Generated_Source\PSoC5/isr_serial.c **** *
 271:Generated_Source\PSoC5/isr_serial.c **** *******************************************************************************/
 272:Generated_Source\PSoC5/isr_serial.c **** void isr_serial_SetPriority(uint8 priority)
 273:Generated_Source\PSoC5/isr_serial.c **** {
 195              		.loc 1 273 0
 196              		.cfi_startproc
 197              		@ args = 0, pretend = 0, frame = 0
 198              		@ frame_needed = 0, uses_anonymous_args = 0
 199              		@ link register save eliminated.
 200              	.LVL17:
 274:Generated_Source\PSoC5/isr_serial.c ****     *isr_serial_INTC_PRIOR = priority << 5;
 201              		.loc 1 274 0
 202 0000 4001     		lsls	r0, r0, #5
 203              	.LVL18:
 204 0002 C0B2     		uxtb	r0, r0
 205 0004 014B     		ldr	r3, .L21
 206 0006 1870     		strb	r0, [r3]
 207 0008 7047     		bx	lr
 208              	.L22:
 209 000a 00BF     		.align	2
 210              	.L21:
 211 000c 02E400E0 		.word	-536812542
 212              		.cfi_endproc
 213              	.LFE69:
 214              		.size	isr_serial_SetPriority, .-isr_serial_SetPriority
 215              		.section	.text.isr_serial_GetPriority,"ax",%progbits
 216              		.align	2
 217              		.global	isr_serial_GetPriority
 218              		.thumb
 219              		.thumb_func
 220              		.type	isr_serial_GetPriority, %function
 221              	isr_serial_GetPriority:
 222              	.LFB70:
 275:Generated_Source\PSoC5/isr_serial.c **** }
 276:Generated_Source\PSoC5/isr_serial.c **** 
 277:Generated_Source\PSoC5/isr_serial.c **** 
 278:Generated_Source\PSoC5/isr_serial.c **** /*******************************************************************************
 279:Generated_Source\PSoC5/isr_serial.c **** * Function Name: isr_serial_GetPriority
 280:Generated_Source\PSoC5/isr_serial.c **** ********************************************************************************
 281:Generated_Source\PSoC5/isr_serial.c **** *
 282:Generated_Source\PSoC5/isr_serial.c **** * Summary:
 283:Generated_Source\PSoC5/isr_serial.c **** *   Gets the Priority of the Interrupt.
 284:Generated_Source\PSoC5/isr_serial.c **** *
 285:Generated_Source\PSoC5/isr_serial.c **** * Parameters:
 286:Generated_Source\PSoC5/isr_serial.c **** *   None
 287:Generated_Source\PSoC5/isr_serial.c **** *
 288:Generated_Source\PSoC5/isr_serial.c **** * Return:
 289:Generated_Source\PSoC5/isr_serial.c **** *   Priority of the interrupt, 0 being the highest priority
 290:Generated_Source\PSoC5/isr_serial.c **** *    PSoC 3 and PSoC 5LP: Priority is from 0 to 7.
 291:Generated_Source\PSoC5/isr_serial.c **** *    PSoC 4: Priority is from 0 to 3.
ARM GAS  C:\Users\pcoud\AppData\Local\Temp\ccW2G5Ui.s 			page 10


 292:Generated_Source\PSoC5/isr_serial.c **** *
 293:Generated_Source\PSoC5/isr_serial.c **** *******************************************************************************/
 294:Generated_Source\PSoC5/isr_serial.c **** uint8 isr_serial_GetPriority(void)
 295:Generated_Source\PSoC5/isr_serial.c **** {
 223              		.loc 1 295 0
 224              		.cfi_startproc
 225              		@ args = 0, pretend = 0, frame = 0
 226              		@ frame_needed = 0, uses_anonymous_args = 0
 227              		@ link register save eliminated.
 296:Generated_Source\PSoC5/isr_serial.c ****     uint8 priority;
 297:Generated_Source\PSoC5/isr_serial.c **** 
 298:Generated_Source\PSoC5/isr_serial.c **** 
 299:Generated_Source\PSoC5/isr_serial.c ****     priority = *isr_serial_INTC_PRIOR >> 5;
 228              		.loc 1 299 0
 229 0000 014B     		ldr	r3, .L24
 230 0002 1878     		ldrb	r0, [r3]	@ zero_extendqisi2
 231              	.LVL19:
 300:Generated_Source\PSoC5/isr_serial.c **** 
 301:Generated_Source\PSoC5/isr_serial.c ****     return priority;
 302:Generated_Source\PSoC5/isr_serial.c **** }
 232              		.loc 1 302 0
 233 0004 4009     		lsrs	r0, r0, #5
 234              	.LVL20:
 235 0006 7047     		bx	lr
 236              	.L25:
 237              		.align	2
 238              	.L24:
 239 0008 02E400E0 		.word	-536812542
 240              		.cfi_endproc
 241              	.LFE70:
 242              		.size	isr_serial_GetPriority, .-isr_serial_GetPriority
 243              		.section	.text.isr_serial_Enable,"ax",%progbits
 244              		.align	2
 245              		.global	isr_serial_Enable
 246              		.thumb
 247              		.thumb_func
 248              		.type	isr_serial_Enable, %function
 249              	isr_serial_Enable:
 250              	.LFB71:
 303:Generated_Source\PSoC5/isr_serial.c **** 
 304:Generated_Source\PSoC5/isr_serial.c **** 
 305:Generated_Source\PSoC5/isr_serial.c **** /*******************************************************************************
 306:Generated_Source\PSoC5/isr_serial.c **** * Function Name: isr_serial_Enable
 307:Generated_Source\PSoC5/isr_serial.c **** ********************************************************************************
 308:Generated_Source\PSoC5/isr_serial.c **** *
 309:Generated_Source\PSoC5/isr_serial.c **** * Summary:
 310:Generated_Source\PSoC5/isr_serial.c **** *   Enables the interrupt to the interrupt controller. Do not call this function
 311:Generated_Source\PSoC5/isr_serial.c **** *   unless ISR_Start() has been called or the functionality of the ISR_Start() 
 312:Generated_Source\PSoC5/isr_serial.c **** *   function, which sets the vector and the priority, has been called.
 313:Generated_Source\PSoC5/isr_serial.c **** *
 314:Generated_Source\PSoC5/isr_serial.c **** * Parameters:
 315:Generated_Source\PSoC5/isr_serial.c **** *   None
 316:Generated_Source\PSoC5/isr_serial.c **** *
 317:Generated_Source\PSoC5/isr_serial.c **** * Return:
 318:Generated_Source\PSoC5/isr_serial.c **** *   None
 319:Generated_Source\PSoC5/isr_serial.c **** *
 320:Generated_Source\PSoC5/isr_serial.c **** *******************************************************************************/
ARM GAS  C:\Users\pcoud\AppData\Local\Temp\ccW2G5Ui.s 			page 11


 321:Generated_Source\PSoC5/isr_serial.c **** void isr_serial_Enable(void)
 322:Generated_Source\PSoC5/isr_serial.c **** {
 251              		.loc 1 322 0
 252              		.cfi_startproc
 253              		@ args = 0, pretend = 0, frame = 0
 254              		@ frame_needed = 0, uses_anonymous_args = 0
 255              		@ link register save eliminated.
 323:Generated_Source\PSoC5/isr_serial.c ****     /* Enable the general interrupt. */
 324:Generated_Source\PSoC5/isr_serial.c ****     *isr_serial_INTC_SET_EN = isr_serial__INTC_MASK;
 256              		.loc 1 324 0
 257 0000 0422     		movs	r2, #4
 258 0002 014B     		ldr	r3, .L27
 259 0004 1A60     		str	r2, [r3]
 260 0006 7047     		bx	lr
 261              	.L28:
 262              		.align	2
 263              	.L27:
 264 0008 00E100E0 		.word	-536813312
 265              		.cfi_endproc
 266              	.LFE71:
 267              		.size	isr_serial_Enable, .-isr_serial_Enable
 268              		.section	.text.isr_serial_GetState,"ax",%progbits
 269              		.align	2
 270              		.global	isr_serial_GetState
 271              		.thumb
 272              		.thumb_func
 273              		.type	isr_serial_GetState, %function
 274              	isr_serial_GetState:
 275              	.LFB72:
 325:Generated_Source\PSoC5/isr_serial.c **** }
 326:Generated_Source\PSoC5/isr_serial.c **** 
 327:Generated_Source\PSoC5/isr_serial.c **** 
 328:Generated_Source\PSoC5/isr_serial.c **** /*******************************************************************************
 329:Generated_Source\PSoC5/isr_serial.c **** * Function Name: isr_serial_GetState
 330:Generated_Source\PSoC5/isr_serial.c **** ********************************************************************************
 331:Generated_Source\PSoC5/isr_serial.c **** *
 332:Generated_Source\PSoC5/isr_serial.c **** * Summary:
 333:Generated_Source\PSoC5/isr_serial.c **** *   Gets the state (enabled, disabled) of the Interrupt.
 334:Generated_Source\PSoC5/isr_serial.c **** *
 335:Generated_Source\PSoC5/isr_serial.c **** * Parameters:
 336:Generated_Source\PSoC5/isr_serial.c **** *   None
 337:Generated_Source\PSoC5/isr_serial.c **** *
 338:Generated_Source\PSoC5/isr_serial.c **** * Return:
 339:Generated_Source\PSoC5/isr_serial.c **** *   1 if enabled, 0 if disabled.
 340:Generated_Source\PSoC5/isr_serial.c **** *
 341:Generated_Source\PSoC5/isr_serial.c **** *******************************************************************************/
 342:Generated_Source\PSoC5/isr_serial.c **** uint8 isr_serial_GetState(void)
 343:Generated_Source\PSoC5/isr_serial.c **** {
 276              		.loc 1 343 0
 277              		.cfi_startproc
 278              		@ args = 0, pretend = 0, frame = 0
 279              		@ frame_needed = 0, uses_anonymous_args = 0
 280              		@ link register save eliminated.
 344:Generated_Source\PSoC5/isr_serial.c ****     /* Get the state of the general interrupt. */
 345:Generated_Source\PSoC5/isr_serial.c ****     return ((*isr_serial_INTC_SET_EN & (uint32)isr_serial__INTC_MASK) != 0u) ? 1u:0u;
 281              		.loc 1 345 0
 282 0000 044B     		ldr	r3, .L32
ARM GAS  C:\Users\pcoud\AppData\Local\Temp\ccW2G5Ui.s 			page 12


 283 0002 1B68     		ldr	r3, [r3]
 284 0004 13F0040F 		tst	r3, #4
 285 0008 01D0     		beq	.L31
 286 000a 0120     		movs	r0, #1
 287 000c 7047     		bx	lr
 288              	.L31:
 289 000e 0020     		movs	r0, #0
 346:Generated_Source\PSoC5/isr_serial.c **** }
 290              		.loc 1 346 0
 291 0010 7047     		bx	lr
 292              	.L33:
 293 0012 00BF     		.align	2
 294              	.L32:
 295 0014 00E100E0 		.word	-536813312
 296              		.cfi_endproc
 297              	.LFE72:
 298              		.size	isr_serial_GetState, .-isr_serial_GetState
 299              		.section	.text.isr_serial_Disable,"ax",%progbits
 300              		.align	2
 301              		.global	isr_serial_Disable
 302              		.thumb
 303              		.thumb_func
 304              		.type	isr_serial_Disable, %function
 305              	isr_serial_Disable:
 306              	.LFB73:
 347:Generated_Source\PSoC5/isr_serial.c **** 
 348:Generated_Source\PSoC5/isr_serial.c **** 
 349:Generated_Source\PSoC5/isr_serial.c **** /*******************************************************************************
 350:Generated_Source\PSoC5/isr_serial.c **** * Function Name: isr_serial_Disable
 351:Generated_Source\PSoC5/isr_serial.c **** ********************************************************************************
 352:Generated_Source\PSoC5/isr_serial.c **** *
 353:Generated_Source\PSoC5/isr_serial.c **** * Summary:
 354:Generated_Source\PSoC5/isr_serial.c **** *   Disables the Interrupt in the interrupt controller.
 355:Generated_Source\PSoC5/isr_serial.c **** *
 356:Generated_Source\PSoC5/isr_serial.c **** * Parameters:
 357:Generated_Source\PSoC5/isr_serial.c **** *   None
 358:Generated_Source\PSoC5/isr_serial.c **** *
 359:Generated_Source\PSoC5/isr_serial.c **** * Return:
 360:Generated_Source\PSoC5/isr_serial.c **** *   None
 361:Generated_Source\PSoC5/isr_serial.c **** *
 362:Generated_Source\PSoC5/isr_serial.c **** *******************************************************************************/
 363:Generated_Source\PSoC5/isr_serial.c **** void isr_serial_Disable(void)
 364:Generated_Source\PSoC5/isr_serial.c **** {
 307              		.loc 1 364 0
 308              		.cfi_startproc
 309              		@ args = 0, pretend = 0, frame = 0
 310              		@ frame_needed = 0, uses_anonymous_args = 0
 311              		@ link register save eliminated.
 365:Generated_Source\PSoC5/isr_serial.c ****     /* Disable the general interrupt. */
 366:Generated_Source\PSoC5/isr_serial.c ****     *isr_serial_INTC_CLR_EN = isr_serial__INTC_MASK;
 312              		.loc 1 366 0
 313 0000 0422     		movs	r2, #4
 314 0002 014B     		ldr	r3, .L35
 315 0004 1A60     		str	r2, [r3]
 316 0006 7047     		bx	lr
 317              	.L36:
 318              		.align	2
ARM GAS  C:\Users\pcoud\AppData\Local\Temp\ccW2G5Ui.s 			page 13


 319              	.L35:
 320 0008 80E100E0 		.word	-536813184
 321              		.cfi_endproc
 322              	.LFE73:
 323              		.size	isr_serial_Disable, .-isr_serial_Disable
 324              		.section	.text.isr_serial_Start,"ax",%progbits
 325              		.align	2
 326              		.global	isr_serial_Start
 327              		.thumb
 328              		.thumb_func
 329              		.type	isr_serial_Start, %function
 330              	isr_serial_Start:
 331              	.LFB63:
  66:Generated_Source\PSoC5/isr_serial.c ****     /* For all we know the interrupt is active. */
 332              		.loc 1 66 0
 333              		.cfi_startproc
 334              		@ args = 0, pretend = 0, frame = 0
 335              		@ frame_needed = 0, uses_anonymous_args = 0
 336 0000 08B5     		push	{r3, lr}
 337              		.cfi_def_cfa_offset 8
 338              		.cfi_offset 3, -8
 339              		.cfi_offset 14, -4
  68:Generated_Source\PSoC5/isr_serial.c **** 
 340              		.loc 1 68 0
 341 0002 FFF7FEFF 		bl	isr_serial_Disable
 342              	.LVL21:
  71:Generated_Source\PSoC5/isr_serial.c **** 
 343              		.loc 1 71 0
 344 0006 0448     		ldr	r0, .L39
 345 0008 FFF7FEFF 		bl	isr_serial_SetVector
 346              	.LVL22:
  74:Generated_Source\PSoC5/isr_serial.c **** 
 347              		.loc 1 74 0
 348 000c 0720     		movs	r0, #7
 349 000e FFF7FEFF 		bl	isr_serial_SetPriority
 350              	.LVL23:
  77:Generated_Source\PSoC5/isr_serial.c **** }
 351              		.loc 1 77 0
 352 0012 FFF7FEFF 		bl	isr_serial_Enable
 353              	.LVL24:
 354 0016 08BD     		pop	{r3, pc}
 355              	.L40:
 356              		.align	2
 357              	.L39:
 358 0018 00000000 		.word	isr_serial_Interrupt
 359              		.cfi_endproc
 360              	.LFE63:
 361              		.size	isr_serial_Start, .-isr_serial_Start
 362              		.section	.text.isr_serial_StartEx,"ax",%progbits
 363              		.align	2
 364              		.global	isr_serial_StartEx
 365              		.thumb
 366              		.thumb_func
 367              		.type	isr_serial_StartEx, %function
 368              	isr_serial_StartEx:
 369              	.LFB64:
 109:Generated_Source\PSoC5/isr_serial.c ****     /* For all we know the interrupt is active. */
ARM GAS  C:\Users\pcoud\AppData\Local\Temp\ccW2G5Ui.s 			page 14


 370              		.loc 1 109 0
 371              		.cfi_startproc
 372              		@ args = 0, pretend = 0, frame = 0
 373              		@ frame_needed = 0, uses_anonymous_args = 0
 374              	.LVL25:
 375 0000 10B5     		push	{r4, lr}
 376              		.cfi_def_cfa_offset 8
 377              		.cfi_offset 4, -8
 378              		.cfi_offset 14, -4
 379 0002 0446     		mov	r4, r0
 111:Generated_Source\PSoC5/isr_serial.c **** 
 380              		.loc 1 111 0
 381 0004 FFF7FEFF 		bl	isr_serial_Disable
 382              	.LVL26:
 114:Generated_Source\PSoC5/isr_serial.c **** 
 383              		.loc 1 114 0
 384 0008 2046     		mov	r0, r4
 385 000a FFF7FEFF 		bl	isr_serial_SetVector
 386              	.LVL27:
 117:Generated_Source\PSoC5/isr_serial.c **** 
 387              		.loc 1 117 0
 388 000e 0720     		movs	r0, #7
 389 0010 FFF7FEFF 		bl	isr_serial_SetPriority
 390              	.LVL28:
 120:Generated_Source\PSoC5/isr_serial.c **** }
 391              		.loc 1 120 0
 392 0014 FFF7FEFF 		bl	isr_serial_Enable
 393              	.LVL29:
 394 0018 10BD     		pop	{r4, pc}
 395              		.cfi_endproc
 396              	.LFE64:
 397              		.size	isr_serial_StartEx, .-isr_serial_StartEx
 398 001a 00BF     		.section	.text.isr_serial_Stop,"ax",%progbits
 399              		.align	2
 400              		.global	isr_serial_Stop
 401              		.thumb
 402              		.thumb_func
 403              		.type	isr_serial_Stop, %function
 404              	isr_serial_Stop:
 405              	.LFB65:
 139:Generated_Source\PSoC5/isr_serial.c ****     /* Disable this interrupt. */
 406              		.loc 1 139 0
 407              		.cfi_startproc
 408              		@ args = 0, pretend = 0, frame = 0
 409              		@ frame_needed = 0, uses_anonymous_args = 0
 410 0000 08B5     		push	{r3, lr}
 411              		.cfi_def_cfa_offset 8
 412              		.cfi_offset 3, -8
 413              		.cfi_offset 14, -4
 141:Generated_Source\PSoC5/isr_serial.c **** 
 414              		.loc 1 141 0
 415 0002 FFF7FEFF 		bl	isr_serial_Disable
 416              	.LVL30:
 144:Generated_Source\PSoC5/isr_serial.c **** }
 417              		.loc 1 144 0
 418 0006 0248     		ldr	r0, .L45
 419 0008 FFF7FEFF 		bl	isr_serial_SetVector
ARM GAS  C:\Users\pcoud\AppData\Local\Temp\ccW2G5Ui.s 			page 15


 420              	.LVL31:
 421 000c 08BD     		pop	{r3, pc}
 422              	.L46:
 423 000e 00BF     		.align	2
 424              	.L45:
 425 0010 00000000 		.word	IntDefaultHandler
 426              		.cfi_endproc
 427              	.LFE65:
 428              		.size	isr_serial_Stop, .-isr_serial_Stop
 429              		.section	.text.isr_serial_SetPending,"ax",%progbits
 430              		.align	2
 431              		.global	isr_serial_SetPending
 432              		.thumb
 433              		.thumb_func
 434              		.type	isr_serial_SetPending, %function
 435              	isr_serial_SetPending:
 436              	.LFB74:
 367:Generated_Source\PSoC5/isr_serial.c **** }
 368:Generated_Source\PSoC5/isr_serial.c **** 
 369:Generated_Source\PSoC5/isr_serial.c **** 
 370:Generated_Source\PSoC5/isr_serial.c **** /*******************************************************************************
 371:Generated_Source\PSoC5/isr_serial.c **** * Function Name: isr_serial_SetPending
 372:Generated_Source\PSoC5/isr_serial.c **** ********************************************************************************
 373:Generated_Source\PSoC5/isr_serial.c **** *
 374:Generated_Source\PSoC5/isr_serial.c **** * Summary:
 375:Generated_Source\PSoC5/isr_serial.c **** *   Causes the Interrupt to enter the pending state, a software method of
 376:Generated_Source\PSoC5/isr_serial.c **** *   generating the interrupt.
 377:Generated_Source\PSoC5/isr_serial.c **** *
 378:Generated_Source\PSoC5/isr_serial.c **** * Parameters:
 379:Generated_Source\PSoC5/isr_serial.c **** *   None
 380:Generated_Source\PSoC5/isr_serial.c **** *
 381:Generated_Source\PSoC5/isr_serial.c **** * Return:
 382:Generated_Source\PSoC5/isr_serial.c **** *   None
 383:Generated_Source\PSoC5/isr_serial.c **** *
 384:Generated_Source\PSoC5/isr_serial.c **** * Side Effects:
 385:Generated_Source\PSoC5/isr_serial.c **** *   If interrupts are enabled and the interrupt is set up properly, the ISR is
 386:Generated_Source\PSoC5/isr_serial.c **** *   entered (depending on the priority of this interrupt and other pending 
 387:Generated_Source\PSoC5/isr_serial.c **** *   interrupts).
 388:Generated_Source\PSoC5/isr_serial.c **** *
 389:Generated_Source\PSoC5/isr_serial.c **** *******************************************************************************/
 390:Generated_Source\PSoC5/isr_serial.c **** void isr_serial_SetPending(void)
 391:Generated_Source\PSoC5/isr_serial.c **** {
 437              		.loc 1 391 0
 438              		.cfi_startproc
 439              		@ args = 0, pretend = 0, frame = 0
 440              		@ frame_needed = 0, uses_anonymous_args = 0
 441              		@ link register save eliminated.
 392:Generated_Source\PSoC5/isr_serial.c ****     *isr_serial_INTC_SET_PD = isr_serial__INTC_MASK;
 442              		.loc 1 392 0
 443 0000 0422     		movs	r2, #4
 444 0002 014B     		ldr	r3, .L48
 445 0004 1A60     		str	r2, [r3]
 446 0006 7047     		bx	lr
 447              	.L49:
 448              		.align	2
 449              	.L48:
 450 0008 00E200E0 		.word	-536813056
ARM GAS  C:\Users\pcoud\AppData\Local\Temp\ccW2G5Ui.s 			page 16


 451              		.cfi_endproc
 452              	.LFE74:
 453              		.size	isr_serial_SetPending, .-isr_serial_SetPending
 454              		.section	.text.isr_serial_ClearPending,"ax",%progbits
 455              		.align	2
 456              		.global	isr_serial_ClearPending
 457              		.thumb
 458              		.thumb_func
 459              		.type	isr_serial_ClearPending, %function
 460              	isr_serial_ClearPending:
 461              	.LFB75:
 393:Generated_Source\PSoC5/isr_serial.c **** }
 394:Generated_Source\PSoC5/isr_serial.c **** 
 395:Generated_Source\PSoC5/isr_serial.c **** 
 396:Generated_Source\PSoC5/isr_serial.c **** /*******************************************************************************
 397:Generated_Source\PSoC5/isr_serial.c **** * Function Name: isr_serial_ClearPending
 398:Generated_Source\PSoC5/isr_serial.c **** ********************************************************************************
 399:Generated_Source\PSoC5/isr_serial.c **** *
 400:Generated_Source\PSoC5/isr_serial.c **** * Summary:
 401:Generated_Source\PSoC5/isr_serial.c **** *   Clears a pending interrupt in the interrupt controller.
 402:Generated_Source\PSoC5/isr_serial.c **** *
 403:Generated_Source\PSoC5/isr_serial.c **** *   Note Some interrupt sources are clear-on-read and require the block 
 404:Generated_Source\PSoC5/isr_serial.c **** *   interrupt/status register to be read/cleared with the appropriate block API 
 405:Generated_Source\PSoC5/isr_serial.c **** *   (GPIO, UART, and so on). Otherwise the ISR will continue to remain in 
 406:Generated_Source\PSoC5/isr_serial.c **** *   pending state even though the interrupt itself is cleared using this API.
 407:Generated_Source\PSoC5/isr_serial.c **** *
 408:Generated_Source\PSoC5/isr_serial.c **** * Parameters:
 409:Generated_Source\PSoC5/isr_serial.c **** *   None
 410:Generated_Source\PSoC5/isr_serial.c **** *
 411:Generated_Source\PSoC5/isr_serial.c **** * Return:
 412:Generated_Source\PSoC5/isr_serial.c **** *   None
 413:Generated_Source\PSoC5/isr_serial.c **** *
 414:Generated_Source\PSoC5/isr_serial.c **** *******************************************************************************/
 415:Generated_Source\PSoC5/isr_serial.c **** void isr_serial_ClearPending(void)
 416:Generated_Source\PSoC5/isr_serial.c **** {
 462              		.loc 1 416 0
 463              		.cfi_startproc
 464              		@ args = 0, pretend = 0, frame = 0
 465              		@ frame_needed = 0, uses_anonymous_args = 0
 466              		@ link register save eliminated.
 417:Generated_Source\PSoC5/isr_serial.c ****     *isr_serial_INTC_CLR_PD = isr_serial__INTC_MASK;
 467              		.loc 1 417 0
 468 0000 0422     		movs	r2, #4
 469 0002 014B     		ldr	r3, .L51
 470 0004 1A60     		str	r2, [r3]
 471 0006 7047     		bx	lr
 472              	.L52:
 473              		.align	2
 474              	.L51:
 475 0008 80E200E0 		.word	-536812928
 476              		.cfi_endproc
 477              	.LFE75:
 478              		.size	isr_serial_ClearPending, .-isr_serial_ClearPending
 479              		.text
 480              	.Letext0:
 481              		.file 2 "c:\\program files (x86)\\cypress\\psoc creator\\4.1\\psoc creator\\import\\gnu\\arm\\5.4.
 482              		.file 3 "c:\\program files (x86)\\cypress\\psoc creator\\4.1\\psoc creator\\import\\gnu\\arm\\5.4.
ARM GAS  C:\Users\pcoud\AppData\Local\Temp\ccW2G5Ui.s 			page 17


 483              		.file 4 "Generated_Source\\PSoC5/cytypes.h"
 484              		.file 5 "Generated_Source\\PSoC5/core_cm3.h"
 485              		.file 6 "Generated_Source\\PSoC5/UART_SIG.h"