ARM GAS  C:\Users\pcoud\AppData\Local\Temp\ccsJEvzk.s 			page 1


   1              		.syntax unified
   2              		.cpu cortex-m3
   3              		.fpu softvfp
   4              		.eabi_attribute 20, 1
   5              		.eabi_attribute 21, 1
   6              		.eabi_attribute 23, 3
   7              		.eabi_attribute 24, 1
   8              		.eabi_attribute 25, 1
   9              		.eabi_attribute 26, 1
  10              		.eabi_attribute 30, 1
  11              		.eabi_attribute 34, 1
  12              		.eabi_attribute 18, 4
  13              		.thumb
  14              		.syntax unified
  15              		.file	"isr_rch.c"
  16              		.text
  17              	.Ltext0:
  18              		.cfi_sections	.debug_frame
  19              		.section	.text.isr_rch_Interrupt,"ax",%progbits
  20              		.align	2
  21              		.global	isr_rch_Interrupt
  22              		.thumb
  23              		.thumb_func
  24              		.type	isr_rch_Interrupt, %function
  25              	isr_rch_Interrupt:
  26              	.LFB66:
  27              		.file 1 "Generated_Source\\PSoC5\\isr_rch.c"
   1:Generated_Source\PSoC5/isr_rch.c **** /*******************************************************************************
   2:Generated_Source\PSoC5/isr_rch.c **** * File Name: isr_rch.c  
   3:Generated_Source\PSoC5/isr_rch.c **** * Version 1.70
   4:Generated_Source\PSoC5/isr_rch.c **** *
   5:Generated_Source\PSoC5/isr_rch.c **** *  Description:
   6:Generated_Source\PSoC5/isr_rch.c **** *   API for controlling the state of an interrupt.
   7:Generated_Source\PSoC5/isr_rch.c **** *
   8:Generated_Source\PSoC5/isr_rch.c **** *
   9:Generated_Source\PSoC5/isr_rch.c **** *  Note:
  10:Generated_Source\PSoC5/isr_rch.c **** *
  11:Generated_Source\PSoC5/isr_rch.c **** ********************************************************************************
  12:Generated_Source\PSoC5/isr_rch.c **** * Copyright 2008-2015, Cypress Semiconductor Corporation.  All rights reserved.
  13:Generated_Source\PSoC5/isr_rch.c **** * You may use this file only in accordance with the license, terms, conditions, 
  14:Generated_Source\PSoC5/isr_rch.c **** * disclaimers, and limitations in the end user license agreement accompanying 
  15:Generated_Source\PSoC5/isr_rch.c **** * the software package with which this file was provided.
  16:Generated_Source\PSoC5/isr_rch.c **** *******************************************************************************/
  17:Generated_Source\PSoC5/isr_rch.c **** 
  18:Generated_Source\PSoC5/isr_rch.c **** 
  19:Generated_Source\PSoC5/isr_rch.c **** #include <cydevice_trm.h>
  20:Generated_Source\PSoC5/isr_rch.c **** #include <CyLib.h>
  21:Generated_Source\PSoC5/isr_rch.c **** #include <isr_rch.h>
  22:Generated_Source\PSoC5/isr_rch.c **** #include "cyapicallbacks.h"
  23:Generated_Source\PSoC5/isr_rch.c **** 
  24:Generated_Source\PSoC5/isr_rch.c **** #if !defined(isr_rch__REMOVED) /* Check for removal by optimization */
  25:Generated_Source\PSoC5/isr_rch.c **** 
  26:Generated_Source\PSoC5/isr_rch.c **** /*******************************************************************************
  27:Generated_Source\PSoC5/isr_rch.c **** *  Place your includes, defines and code here 
  28:Generated_Source\PSoC5/isr_rch.c **** ********************************************************************************/
  29:Generated_Source\PSoC5/isr_rch.c **** /* `#START isr_rch_intc` */
  30:Generated_Source\PSoC5/isr_rch.c **** #include <project.h>
ARM GAS  C:\Users\pcoud\AppData\Local\Temp\ccsJEvzk.s 			page 2


  31:Generated_Source\PSoC5/isr_rch.c **** extern uint16 disjon;
  32:Generated_Source\PSoC5/isr_rch.c **** /* `#END` */
  33:Generated_Source\PSoC5/isr_rch.c **** 
  34:Generated_Source\PSoC5/isr_rch.c **** #ifndef CYINT_IRQ_BASE
  35:Generated_Source\PSoC5/isr_rch.c **** #define CYINT_IRQ_BASE      16
  36:Generated_Source\PSoC5/isr_rch.c **** #endif /* CYINT_IRQ_BASE */
  37:Generated_Source\PSoC5/isr_rch.c **** #ifndef CYINT_VECT_TABLE
  38:Generated_Source\PSoC5/isr_rch.c **** #define CYINT_VECT_TABLE    ((cyisraddress **) CYREG_NVIC_VECT_OFFSET)
  39:Generated_Source\PSoC5/isr_rch.c **** #endif /* CYINT_VECT_TABLE */
  40:Generated_Source\PSoC5/isr_rch.c **** 
  41:Generated_Source\PSoC5/isr_rch.c **** /* Declared in startup, used to set unused interrupts to. */
  42:Generated_Source\PSoC5/isr_rch.c **** CY_ISR_PROTO(IntDefaultHandler);
  43:Generated_Source\PSoC5/isr_rch.c **** 
  44:Generated_Source\PSoC5/isr_rch.c **** 
  45:Generated_Source\PSoC5/isr_rch.c **** /*******************************************************************************
  46:Generated_Source\PSoC5/isr_rch.c **** * Function Name: isr_rch_Start
  47:Generated_Source\PSoC5/isr_rch.c **** ********************************************************************************
  48:Generated_Source\PSoC5/isr_rch.c **** *
  49:Generated_Source\PSoC5/isr_rch.c **** * Summary:
  50:Generated_Source\PSoC5/isr_rch.c **** *  Set up the interrupt and enable it. This function disables the interrupt, 
  51:Generated_Source\PSoC5/isr_rch.c **** *  sets the default interrupt vector, sets the priority from the value in the
  52:Generated_Source\PSoC5/isr_rch.c **** *  Design Wide Resources Interrupt Editor, then enables the interrupt to the 
  53:Generated_Source\PSoC5/isr_rch.c **** *  interrupt controller.
  54:Generated_Source\PSoC5/isr_rch.c **** *
  55:Generated_Source\PSoC5/isr_rch.c **** * Parameters:  
  56:Generated_Source\PSoC5/isr_rch.c **** *   None
  57:Generated_Source\PSoC5/isr_rch.c **** *
  58:Generated_Source\PSoC5/isr_rch.c **** * Return:
  59:Generated_Source\PSoC5/isr_rch.c **** *   None
  60:Generated_Source\PSoC5/isr_rch.c **** *
  61:Generated_Source\PSoC5/isr_rch.c **** *******************************************************************************/
  62:Generated_Source\PSoC5/isr_rch.c **** void isr_rch_Start(void)
  63:Generated_Source\PSoC5/isr_rch.c **** {
  64:Generated_Source\PSoC5/isr_rch.c ****     /* For all we know the interrupt is active. */
  65:Generated_Source\PSoC5/isr_rch.c ****     isr_rch_Disable();
  66:Generated_Source\PSoC5/isr_rch.c **** 
  67:Generated_Source\PSoC5/isr_rch.c ****     /* Set the ISR to point to the isr_rch Interrupt. */
  68:Generated_Source\PSoC5/isr_rch.c ****     isr_rch_SetVector(&isr_rch_Interrupt);
  69:Generated_Source\PSoC5/isr_rch.c **** 
  70:Generated_Source\PSoC5/isr_rch.c ****     /* Set the priority. */
  71:Generated_Source\PSoC5/isr_rch.c ****     isr_rch_SetPriority((uint8)isr_rch_INTC_PRIOR_NUMBER);
  72:Generated_Source\PSoC5/isr_rch.c **** 
  73:Generated_Source\PSoC5/isr_rch.c ****     /* Enable it. */
  74:Generated_Source\PSoC5/isr_rch.c ****     isr_rch_Enable();
  75:Generated_Source\PSoC5/isr_rch.c **** }
  76:Generated_Source\PSoC5/isr_rch.c **** 
  77:Generated_Source\PSoC5/isr_rch.c **** 
  78:Generated_Source\PSoC5/isr_rch.c **** /*******************************************************************************
  79:Generated_Source\PSoC5/isr_rch.c **** * Function Name: isr_rch_StartEx
  80:Generated_Source\PSoC5/isr_rch.c **** ********************************************************************************
  81:Generated_Source\PSoC5/isr_rch.c **** *
  82:Generated_Source\PSoC5/isr_rch.c **** * Summary:
  83:Generated_Source\PSoC5/isr_rch.c **** *  Sets up the interrupt and enables it. This function disables the interrupt,
  84:Generated_Source\PSoC5/isr_rch.c **** *  sets the interrupt vector based on the address passed in, sets the priority 
  85:Generated_Source\PSoC5/isr_rch.c **** *  from the value in the Design Wide Resources Interrupt Editor, then enables 
  86:Generated_Source\PSoC5/isr_rch.c **** *  the interrupt to the interrupt controller.
  87:Generated_Source\PSoC5/isr_rch.c **** *  
ARM GAS  C:\Users\pcoud\AppData\Local\Temp\ccsJEvzk.s 			page 3


  88:Generated_Source\PSoC5/isr_rch.c **** *  When defining ISR functions, the CY_ISR and CY_ISR_PROTO macros should be 
  89:Generated_Source\PSoC5/isr_rch.c **** *  used to provide consistent definition across compilers:
  90:Generated_Source\PSoC5/isr_rch.c **** *  
  91:Generated_Source\PSoC5/isr_rch.c **** *  Function definition example:
  92:Generated_Source\PSoC5/isr_rch.c **** *   CY_ISR(MyISR)
  93:Generated_Source\PSoC5/isr_rch.c **** *   {
  94:Generated_Source\PSoC5/isr_rch.c **** *   }
  95:Generated_Source\PSoC5/isr_rch.c **** *   Function prototype example:
  96:Generated_Source\PSoC5/isr_rch.c **** *   CY_ISR_PROTO(MyISR);
  97:Generated_Source\PSoC5/isr_rch.c **** *
  98:Generated_Source\PSoC5/isr_rch.c **** * Parameters:  
  99:Generated_Source\PSoC5/isr_rch.c **** *   address: Address of the ISR to set in the interrupt vector table.
 100:Generated_Source\PSoC5/isr_rch.c **** *
 101:Generated_Source\PSoC5/isr_rch.c **** * Return:
 102:Generated_Source\PSoC5/isr_rch.c **** *   None
 103:Generated_Source\PSoC5/isr_rch.c **** *
 104:Generated_Source\PSoC5/isr_rch.c **** *******************************************************************************/
 105:Generated_Source\PSoC5/isr_rch.c **** void isr_rch_StartEx(cyisraddress address)
 106:Generated_Source\PSoC5/isr_rch.c **** {
 107:Generated_Source\PSoC5/isr_rch.c ****     /* For all we know the interrupt is active. */
 108:Generated_Source\PSoC5/isr_rch.c ****     isr_rch_Disable();
 109:Generated_Source\PSoC5/isr_rch.c **** 
 110:Generated_Source\PSoC5/isr_rch.c ****     /* Set the ISR to point to the isr_rch Interrupt. */
 111:Generated_Source\PSoC5/isr_rch.c ****     isr_rch_SetVector(address);
 112:Generated_Source\PSoC5/isr_rch.c **** 
 113:Generated_Source\PSoC5/isr_rch.c ****     /* Set the priority. */
 114:Generated_Source\PSoC5/isr_rch.c ****     isr_rch_SetPriority((uint8)isr_rch_INTC_PRIOR_NUMBER);
 115:Generated_Source\PSoC5/isr_rch.c **** 
 116:Generated_Source\PSoC5/isr_rch.c ****     /* Enable it. */
 117:Generated_Source\PSoC5/isr_rch.c ****     isr_rch_Enable();
 118:Generated_Source\PSoC5/isr_rch.c **** }
 119:Generated_Source\PSoC5/isr_rch.c **** 
 120:Generated_Source\PSoC5/isr_rch.c **** 
 121:Generated_Source\PSoC5/isr_rch.c **** /*******************************************************************************
 122:Generated_Source\PSoC5/isr_rch.c **** * Function Name: isr_rch_Stop
 123:Generated_Source\PSoC5/isr_rch.c **** ********************************************************************************
 124:Generated_Source\PSoC5/isr_rch.c **** *
 125:Generated_Source\PSoC5/isr_rch.c **** * Summary:
 126:Generated_Source\PSoC5/isr_rch.c **** *   Disables and removes the interrupt.
 127:Generated_Source\PSoC5/isr_rch.c **** *
 128:Generated_Source\PSoC5/isr_rch.c **** * Parameters:  
 129:Generated_Source\PSoC5/isr_rch.c **** *   None
 130:Generated_Source\PSoC5/isr_rch.c **** *
 131:Generated_Source\PSoC5/isr_rch.c **** * Return:
 132:Generated_Source\PSoC5/isr_rch.c **** *   None
 133:Generated_Source\PSoC5/isr_rch.c **** *
 134:Generated_Source\PSoC5/isr_rch.c **** *******************************************************************************/
 135:Generated_Source\PSoC5/isr_rch.c **** void isr_rch_Stop(void)
 136:Generated_Source\PSoC5/isr_rch.c **** {
 137:Generated_Source\PSoC5/isr_rch.c ****     /* Disable this interrupt. */
 138:Generated_Source\PSoC5/isr_rch.c ****     isr_rch_Disable();
 139:Generated_Source\PSoC5/isr_rch.c **** 
 140:Generated_Source\PSoC5/isr_rch.c ****     /* Set the ISR to point to the passive one. */
 141:Generated_Source\PSoC5/isr_rch.c ****     isr_rch_SetVector(&IntDefaultHandler);
 142:Generated_Source\PSoC5/isr_rch.c **** }
 143:Generated_Source\PSoC5/isr_rch.c **** 
 144:Generated_Source\PSoC5/isr_rch.c **** 
ARM GAS  C:\Users\pcoud\AppData\Local\Temp\ccsJEvzk.s 			page 4


 145:Generated_Source\PSoC5/isr_rch.c **** /*******************************************************************************
 146:Generated_Source\PSoC5/isr_rch.c **** * Function Name: isr_rch_Interrupt
 147:Generated_Source\PSoC5/isr_rch.c **** ********************************************************************************
 148:Generated_Source\PSoC5/isr_rch.c **** *
 149:Generated_Source\PSoC5/isr_rch.c **** * Summary:
 150:Generated_Source\PSoC5/isr_rch.c **** *   The default Interrupt Service Routine for isr_rch.
 151:Generated_Source\PSoC5/isr_rch.c **** *
 152:Generated_Source\PSoC5/isr_rch.c **** *   Add custom code between the coments to keep the next version of this file
 153:Generated_Source\PSoC5/isr_rch.c **** *   from over writting your code.
 154:Generated_Source\PSoC5/isr_rch.c **** *
 155:Generated_Source\PSoC5/isr_rch.c **** * Parameters:  
 156:Generated_Source\PSoC5/isr_rch.c **** *
 157:Generated_Source\PSoC5/isr_rch.c **** * Return:
 158:Generated_Source\PSoC5/isr_rch.c **** *   None
 159:Generated_Source\PSoC5/isr_rch.c **** *
 160:Generated_Source\PSoC5/isr_rch.c **** *******************************************************************************/
 161:Generated_Source\PSoC5/isr_rch.c **** CY_ISR(isr_rch_Interrupt)
 162:Generated_Source\PSoC5/isr_rch.c **** {
  28              		.loc 1 162 0
  29              		.cfi_startproc
  30              		@ args = 0, pretend = 0, frame = 0
  31              		@ frame_needed = 0, uses_anonymous_args = 0
  32              		@ link register save eliminated.
 163:Generated_Source\PSoC5/isr_rch.c ****     #ifdef isr_rch_INTERRUPT_INTERRUPT_CALLBACK
 164:Generated_Source\PSoC5/isr_rch.c ****         isr_rch_Interrupt_InterruptCallback();
 165:Generated_Source\PSoC5/isr_rch.c ****     #endif /* isr_rch_INTERRUPT_INTERRUPT_CALLBACK */ 
 166:Generated_Source\PSoC5/isr_rch.c **** 
 167:Generated_Source\PSoC5/isr_rch.c ****     /*  Place your Interrupt code here. */
 168:Generated_Source\PSoC5/isr_rch.c ****     /* `#START isr_rch_Interrupt` */
 169:Generated_Source\PSoC5/isr_rch.c ****     disjon=disjon+1;
  33              		.loc 1 169 0
  34 0000 024A     		ldr	r2, .L2
  35 0002 1388     		ldrh	r3, [r2]
  36 0004 0133     		adds	r3, r3, #1
  37 0006 1380     		strh	r3, [r2]	@ movhi
  38 0008 7047     		bx	lr
  39              	.L3:
  40 000a 00BF     		.align	2
  41              	.L2:
  42 000c 00000000 		.word	disjon
  43              		.cfi_endproc
  44              	.LFE66:
  45              		.size	isr_rch_Interrupt, .-isr_rch_Interrupt
  46              		.section	.text.isr_rch_SetVector,"ax",%progbits
  47              		.align	2
  48              		.global	isr_rch_SetVector
  49              		.thumb
  50              		.thumb_func
  51              		.type	isr_rch_SetVector, %function
  52              	isr_rch_SetVector:
  53              	.LFB67:
 170:Generated_Source\PSoC5/isr_rch.c ****     /* `#END` */
 171:Generated_Source\PSoC5/isr_rch.c **** }
 172:Generated_Source\PSoC5/isr_rch.c **** 
 173:Generated_Source\PSoC5/isr_rch.c **** 
 174:Generated_Source\PSoC5/isr_rch.c **** /*******************************************************************************
 175:Generated_Source\PSoC5/isr_rch.c **** * Function Name: isr_rch_SetVector
ARM GAS  C:\Users\pcoud\AppData\Local\Temp\ccsJEvzk.s 			page 5


 176:Generated_Source\PSoC5/isr_rch.c **** ********************************************************************************
 177:Generated_Source\PSoC5/isr_rch.c **** *
 178:Generated_Source\PSoC5/isr_rch.c **** * Summary:
 179:Generated_Source\PSoC5/isr_rch.c **** *   Change the ISR vector for the Interrupt. Note calling isr_rch_Start
 180:Generated_Source\PSoC5/isr_rch.c **** *   will override any effect this method would have had. To set the vector 
 181:Generated_Source\PSoC5/isr_rch.c **** *   before the component has been started use isr_rch_StartEx instead.
 182:Generated_Source\PSoC5/isr_rch.c **** * 
 183:Generated_Source\PSoC5/isr_rch.c **** *   When defining ISR functions, the CY_ISR and CY_ISR_PROTO macros should be 
 184:Generated_Source\PSoC5/isr_rch.c **** *   used to provide consistent definition across compilers:
 185:Generated_Source\PSoC5/isr_rch.c **** *
 186:Generated_Source\PSoC5/isr_rch.c **** *   Function definition example:
 187:Generated_Source\PSoC5/isr_rch.c **** *   CY_ISR(MyISR)
 188:Generated_Source\PSoC5/isr_rch.c **** *   {
 189:Generated_Source\PSoC5/isr_rch.c **** *   }
 190:Generated_Source\PSoC5/isr_rch.c **** *
 191:Generated_Source\PSoC5/isr_rch.c **** *   Function prototype example:
 192:Generated_Source\PSoC5/isr_rch.c **** *     CY_ISR_PROTO(MyISR);
 193:Generated_Source\PSoC5/isr_rch.c **** *
 194:Generated_Source\PSoC5/isr_rch.c **** * Parameters:
 195:Generated_Source\PSoC5/isr_rch.c **** *   address: Address of the ISR to set in the interrupt vector table.
 196:Generated_Source\PSoC5/isr_rch.c **** *
 197:Generated_Source\PSoC5/isr_rch.c **** * Return:
 198:Generated_Source\PSoC5/isr_rch.c **** *   None
 199:Generated_Source\PSoC5/isr_rch.c **** *
 200:Generated_Source\PSoC5/isr_rch.c **** *******************************************************************************/
 201:Generated_Source\PSoC5/isr_rch.c **** void isr_rch_SetVector(cyisraddress address)
 202:Generated_Source\PSoC5/isr_rch.c **** {
  54              		.loc 1 202 0
  55              		.cfi_startproc
  56              		@ args = 0, pretend = 0, frame = 0
  57              		@ frame_needed = 0, uses_anonymous_args = 0
  58              		@ link register save eliminated.
  59              	.LVL0:
 203:Generated_Source\PSoC5/isr_rch.c ****     cyisraddress * ramVectorTable;
 204:Generated_Source\PSoC5/isr_rch.c **** 
 205:Generated_Source\PSoC5/isr_rch.c ****     ramVectorTable = (cyisraddress *) *CYINT_VECT_TABLE;
  60              		.loc 1 205 0
  61 0000 014B     		ldr	r3, .L5
  62 0002 1B68     		ldr	r3, [r3]
  63              	.LVL1:
 206:Generated_Source\PSoC5/isr_rch.c **** 
 207:Generated_Source\PSoC5/isr_rch.c ****     ramVectorTable[CYINT_IRQ_BASE + (uint32)isr_rch__INTC_NUMBER] = address;
  64              		.loc 1 207 0
  65 0004 5864     		str	r0, [r3, #68]
  66 0006 7047     		bx	lr
  67              	.L6:
  68              		.align	2
  69              	.L5:
  70 0008 08ED00E0 		.word	-536810232
  71              		.cfi_endproc
  72              	.LFE67:
  73              		.size	isr_rch_SetVector, .-isr_rch_SetVector
  74              		.section	.text.isr_rch_GetVector,"ax",%progbits
  75              		.align	2
  76              		.global	isr_rch_GetVector
  77              		.thumb
  78              		.thumb_func
ARM GAS  C:\Users\pcoud\AppData\Local\Temp\ccsJEvzk.s 			page 6


  79              		.type	isr_rch_GetVector, %function
  80              	isr_rch_GetVector:
  81              	.LFB68:
 208:Generated_Source\PSoC5/isr_rch.c **** }
 209:Generated_Source\PSoC5/isr_rch.c **** 
 210:Generated_Source\PSoC5/isr_rch.c **** 
 211:Generated_Source\PSoC5/isr_rch.c **** /*******************************************************************************
 212:Generated_Source\PSoC5/isr_rch.c **** * Function Name: isr_rch_GetVector
 213:Generated_Source\PSoC5/isr_rch.c **** ********************************************************************************
 214:Generated_Source\PSoC5/isr_rch.c **** *
 215:Generated_Source\PSoC5/isr_rch.c **** * Summary:
 216:Generated_Source\PSoC5/isr_rch.c **** *   Gets the "address" of the current ISR vector for the Interrupt.
 217:Generated_Source\PSoC5/isr_rch.c **** *
 218:Generated_Source\PSoC5/isr_rch.c **** * Parameters:
 219:Generated_Source\PSoC5/isr_rch.c **** *   None
 220:Generated_Source\PSoC5/isr_rch.c **** *
 221:Generated_Source\PSoC5/isr_rch.c **** * Return:
 222:Generated_Source\PSoC5/isr_rch.c **** *   Address of the ISR in the interrupt vector table.
 223:Generated_Source\PSoC5/isr_rch.c **** *
 224:Generated_Source\PSoC5/isr_rch.c **** *******************************************************************************/
 225:Generated_Source\PSoC5/isr_rch.c **** cyisraddress isr_rch_GetVector(void)
 226:Generated_Source\PSoC5/isr_rch.c **** {
  82              		.loc 1 226 0
  83              		.cfi_startproc
  84              		@ args = 0, pretend = 0, frame = 0
  85              		@ frame_needed = 0, uses_anonymous_args = 0
  86              		@ link register save eliminated.
 227:Generated_Source\PSoC5/isr_rch.c ****     cyisraddress * ramVectorTable;
 228:Generated_Source\PSoC5/isr_rch.c **** 
 229:Generated_Source\PSoC5/isr_rch.c ****     ramVectorTable = (cyisraddress *) *CYINT_VECT_TABLE;
  87              		.loc 1 229 0
  88 0000 014B     		ldr	r3, .L8
  89 0002 1B68     		ldr	r3, [r3]
  90              	.LVL2:
 230:Generated_Source\PSoC5/isr_rch.c **** 
 231:Generated_Source\PSoC5/isr_rch.c ****     return ramVectorTable[CYINT_IRQ_BASE + (uint32)isr_rch__INTC_NUMBER];
 232:Generated_Source\PSoC5/isr_rch.c **** }
  91              		.loc 1 232 0
  92 0004 586C     		ldr	r0, [r3, #68]
  93 0006 7047     		bx	lr
  94              	.L9:
  95              		.align	2
  96              	.L8:
  97 0008 08ED00E0 		.word	-536810232
  98              		.cfi_endproc
  99              	.LFE68:
 100              		.size	isr_rch_GetVector, .-isr_rch_GetVector
 101              		.section	.text.isr_rch_SetPriority,"ax",%progbits
 102              		.align	2
 103              		.global	isr_rch_SetPriority
 104              		.thumb
 105              		.thumb_func
 106              		.type	isr_rch_SetPriority, %function
 107              	isr_rch_SetPriority:
 108              	.LFB69:
 233:Generated_Source\PSoC5/isr_rch.c **** 
 234:Generated_Source\PSoC5/isr_rch.c **** 
ARM GAS  C:\Users\pcoud\AppData\Local\Temp\ccsJEvzk.s 			page 7


 235:Generated_Source\PSoC5/isr_rch.c **** /*******************************************************************************
 236:Generated_Source\PSoC5/isr_rch.c **** * Function Name: isr_rch_SetPriority
 237:Generated_Source\PSoC5/isr_rch.c **** ********************************************************************************
 238:Generated_Source\PSoC5/isr_rch.c **** *
 239:Generated_Source\PSoC5/isr_rch.c **** * Summary:
 240:Generated_Source\PSoC5/isr_rch.c **** *   Sets the Priority of the Interrupt. 
 241:Generated_Source\PSoC5/isr_rch.c **** *
 242:Generated_Source\PSoC5/isr_rch.c **** *   Note calling isr_rch_Start or isr_rch_StartEx will 
 243:Generated_Source\PSoC5/isr_rch.c **** *   override any effect this API would have had. This API should only be called
 244:Generated_Source\PSoC5/isr_rch.c **** *   after isr_rch_Start or isr_rch_StartEx has been called. 
 245:Generated_Source\PSoC5/isr_rch.c **** *   To set the initial priority for the component, use the Design-Wide Resources
 246:Generated_Source\PSoC5/isr_rch.c **** *   Interrupt Editor.
 247:Generated_Source\PSoC5/isr_rch.c **** *
 248:Generated_Source\PSoC5/isr_rch.c **** *   Note This API has no effect on Non-maskable interrupt NMI).
 249:Generated_Source\PSoC5/isr_rch.c **** *
 250:Generated_Source\PSoC5/isr_rch.c **** * Parameters:
 251:Generated_Source\PSoC5/isr_rch.c **** *   priority: Priority of the interrupt, 0 being the highest priority
 252:Generated_Source\PSoC5/isr_rch.c **** *             PSoC 3 and PSoC 5LP: Priority is from 0 to 7.
 253:Generated_Source\PSoC5/isr_rch.c **** *             PSoC 4: Priority is from 0 to 3.
 254:Generated_Source\PSoC5/isr_rch.c **** *
 255:Generated_Source\PSoC5/isr_rch.c **** * Return:
 256:Generated_Source\PSoC5/isr_rch.c **** *   None
 257:Generated_Source\PSoC5/isr_rch.c **** *
 258:Generated_Source\PSoC5/isr_rch.c **** *******************************************************************************/
 259:Generated_Source\PSoC5/isr_rch.c **** void isr_rch_SetPriority(uint8 priority)
 260:Generated_Source\PSoC5/isr_rch.c **** {
 109              		.loc 1 260 0
 110              		.cfi_startproc
 111              		@ args = 0, pretend = 0, frame = 0
 112              		@ frame_needed = 0, uses_anonymous_args = 0
 113              		@ link register save eliminated.
 114              	.LVL3:
 261:Generated_Source\PSoC5/isr_rch.c ****     *isr_rch_INTC_PRIOR = priority << 5;
 115              		.loc 1 261 0
 116 0000 4001     		lsls	r0, r0, #5
 117              	.LVL4:
 118 0002 C0B2     		uxtb	r0, r0
 119 0004 014B     		ldr	r3, .L11
 120 0006 1870     		strb	r0, [r3]
 121 0008 7047     		bx	lr
 122              	.L12:
 123 000a 00BF     		.align	2
 124              	.L11:
 125 000c 01E400E0 		.word	-536812543
 126              		.cfi_endproc
 127              	.LFE69:
 128              		.size	isr_rch_SetPriority, .-isr_rch_SetPriority
 129              		.section	.text.isr_rch_GetPriority,"ax",%progbits
 130              		.align	2
 131              		.global	isr_rch_GetPriority
 132              		.thumb
 133              		.thumb_func
 134              		.type	isr_rch_GetPriority, %function
 135              	isr_rch_GetPriority:
 136              	.LFB70:
 262:Generated_Source\PSoC5/isr_rch.c **** }
 263:Generated_Source\PSoC5/isr_rch.c **** 
ARM GAS  C:\Users\pcoud\AppData\Local\Temp\ccsJEvzk.s 			page 8


 264:Generated_Source\PSoC5/isr_rch.c **** 
 265:Generated_Source\PSoC5/isr_rch.c **** /*******************************************************************************
 266:Generated_Source\PSoC5/isr_rch.c **** * Function Name: isr_rch_GetPriority
 267:Generated_Source\PSoC5/isr_rch.c **** ********************************************************************************
 268:Generated_Source\PSoC5/isr_rch.c **** *
 269:Generated_Source\PSoC5/isr_rch.c **** * Summary:
 270:Generated_Source\PSoC5/isr_rch.c **** *   Gets the Priority of the Interrupt.
 271:Generated_Source\PSoC5/isr_rch.c **** *
 272:Generated_Source\PSoC5/isr_rch.c **** * Parameters:
 273:Generated_Source\PSoC5/isr_rch.c **** *   None
 274:Generated_Source\PSoC5/isr_rch.c **** *
 275:Generated_Source\PSoC5/isr_rch.c **** * Return:
 276:Generated_Source\PSoC5/isr_rch.c **** *   Priority of the interrupt, 0 being the highest priority
 277:Generated_Source\PSoC5/isr_rch.c **** *    PSoC 3 and PSoC 5LP: Priority is from 0 to 7.
 278:Generated_Source\PSoC5/isr_rch.c **** *    PSoC 4: Priority is from 0 to 3.
 279:Generated_Source\PSoC5/isr_rch.c **** *
 280:Generated_Source\PSoC5/isr_rch.c **** *******************************************************************************/
 281:Generated_Source\PSoC5/isr_rch.c **** uint8 isr_rch_GetPriority(void)
 282:Generated_Source\PSoC5/isr_rch.c **** {
 137              		.loc 1 282 0
 138              		.cfi_startproc
 139              		@ args = 0, pretend = 0, frame = 0
 140              		@ frame_needed = 0, uses_anonymous_args = 0
 141              		@ link register save eliminated.
 283:Generated_Source\PSoC5/isr_rch.c ****     uint8 priority;
 284:Generated_Source\PSoC5/isr_rch.c **** 
 285:Generated_Source\PSoC5/isr_rch.c **** 
 286:Generated_Source\PSoC5/isr_rch.c ****     priority = *isr_rch_INTC_PRIOR >> 5;
 142              		.loc 1 286 0
 143 0000 014B     		ldr	r3, .L14
 144 0002 1878     		ldrb	r0, [r3]	@ zero_extendqisi2
 145              	.LVL5:
 287:Generated_Source\PSoC5/isr_rch.c **** 
 288:Generated_Source\PSoC5/isr_rch.c ****     return priority;
 289:Generated_Source\PSoC5/isr_rch.c **** }
 146              		.loc 1 289 0
 147 0004 4009     		lsrs	r0, r0, #5
 148              	.LVL6:
 149 0006 7047     		bx	lr
 150              	.L15:
 151              		.align	2
 152              	.L14:
 153 0008 01E400E0 		.word	-536812543
 154              		.cfi_endproc
 155              	.LFE70:
 156              		.size	isr_rch_GetPriority, .-isr_rch_GetPriority
 157              		.section	.text.isr_rch_Enable,"ax",%progbits
 158              		.align	2
 159              		.global	isr_rch_Enable
 160              		.thumb
 161              		.thumb_func
 162              		.type	isr_rch_Enable, %function
 163              	isr_rch_Enable:
 164              	.LFB71:
 290:Generated_Source\PSoC5/isr_rch.c **** 
 291:Generated_Source\PSoC5/isr_rch.c **** 
 292:Generated_Source\PSoC5/isr_rch.c **** /*******************************************************************************
ARM GAS  C:\Users\pcoud\AppData\Local\Temp\ccsJEvzk.s 			page 9


 293:Generated_Source\PSoC5/isr_rch.c **** * Function Name: isr_rch_Enable
 294:Generated_Source\PSoC5/isr_rch.c **** ********************************************************************************
 295:Generated_Source\PSoC5/isr_rch.c **** *
 296:Generated_Source\PSoC5/isr_rch.c **** * Summary:
 297:Generated_Source\PSoC5/isr_rch.c **** *   Enables the interrupt to the interrupt controller. Do not call this function
 298:Generated_Source\PSoC5/isr_rch.c **** *   unless ISR_Start() has been called or the functionality of the ISR_Start() 
 299:Generated_Source\PSoC5/isr_rch.c **** *   function, which sets the vector and the priority, has been called.
 300:Generated_Source\PSoC5/isr_rch.c **** *
 301:Generated_Source\PSoC5/isr_rch.c **** * Parameters:
 302:Generated_Source\PSoC5/isr_rch.c **** *   None
 303:Generated_Source\PSoC5/isr_rch.c **** *
 304:Generated_Source\PSoC5/isr_rch.c **** * Return:
 305:Generated_Source\PSoC5/isr_rch.c **** *   None
 306:Generated_Source\PSoC5/isr_rch.c **** *
 307:Generated_Source\PSoC5/isr_rch.c **** *******************************************************************************/
 308:Generated_Source\PSoC5/isr_rch.c **** void isr_rch_Enable(void)
 309:Generated_Source\PSoC5/isr_rch.c **** {
 165              		.loc 1 309 0
 166              		.cfi_startproc
 167              		@ args = 0, pretend = 0, frame = 0
 168              		@ frame_needed = 0, uses_anonymous_args = 0
 169              		@ link register save eliminated.
 310:Generated_Source\PSoC5/isr_rch.c ****     /* Enable the general interrupt. */
 311:Generated_Source\PSoC5/isr_rch.c ****     *isr_rch_INTC_SET_EN = isr_rch__INTC_MASK;
 170              		.loc 1 311 0
 171 0000 0222     		movs	r2, #2
 172 0002 014B     		ldr	r3, .L17
 173 0004 1A60     		str	r2, [r3]
 174 0006 7047     		bx	lr
 175              	.L18:
 176              		.align	2
 177              	.L17:
 178 0008 00E100E0 		.word	-536813312
 179              		.cfi_endproc
 180              	.LFE71:
 181              		.size	isr_rch_Enable, .-isr_rch_Enable
 182              		.section	.text.isr_rch_GetState,"ax",%progbits
 183              		.align	2
 184              		.global	isr_rch_GetState
 185              		.thumb
 186              		.thumb_func
 187              		.type	isr_rch_GetState, %function
 188              	isr_rch_GetState:
 189              	.LFB72:
 312:Generated_Source\PSoC5/isr_rch.c **** }
 313:Generated_Source\PSoC5/isr_rch.c **** 
 314:Generated_Source\PSoC5/isr_rch.c **** 
 315:Generated_Source\PSoC5/isr_rch.c **** /*******************************************************************************
 316:Generated_Source\PSoC5/isr_rch.c **** * Function Name: isr_rch_GetState
 317:Generated_Source\PSoC5/isr_rch.c **** ********************************************************************************
 318:Generated_Source\PSoC5/isr_rch.c **** *
 319:Generated_Source\PSoC5/isr_rch.c **** * Summary:
 320:Generated_Source\PSoC5/isr_rch.c **** *   Gets the state (enabled, disabled) of the Interrupt.
 321:Generated_Source\PSoC5/isr_rch.c **** *
 322:Generated_Source\PSoC5/isr_rch.c **** * Parameters:
 323:Generated_Source\PSoC5/isr_rch.c **** *   None
 324:Generated_Source\PSoC5/isr_rch.c **** *
ARM GAS  C:\Users\pcoud\AppData\Local\Temp\ccsJEvzk.s 			page 10


 325:Generated_Source\PSoC5/isr_rch.c **** * Return:
 326:Generated_Source\PSoC5/isr_rch.c **** *   1 if enabled, 0 if disabled.
 327:Generated_Source\PSoC5/isr_rch.c **** *
 328:Generated_Source\PSoC5/isr_rch.c **** *******************************************************************************/
 329:Generated_Source\PSoC5/isr_rch.c **** uint8 isr_rch_GetState(void)
 330:Generated_Source\PSoC5/isr_rch.c **** {
 190              		.loc 1 330 0
 191              		.cfi_startproc
 192              		@ args = 0, pretend = 0, frame = 0
 193              		@ frame_needed = 0, uses_anonymous_args = 0
 194              		@ link register save eliminated.
 331:Generated_Source\PSoC5/isr_rch.c ****     /* Get the state of the general interrupt. */
 332:Generated_Source\PSoC5/isr_rch.c ****     return ((*isr_rch_INTC_SET_EN & (uint32)isr_rch__INTC_MASK) != 0u) ? 1u:0u;
 195              		.loc 1 332 0
 196 0000 044B     		ldr	r3, .L22
 197 0002 1B68     		ldr	r3, [r3]
 198 0004 13F0020F 		tst	r3, #2
 199 0008 01D0     		beq	.L21
 200 000a 0120     		movs	r0, #1
 201 000c 7047     		bx	lr
 202              	.L21:
 203 000e 0020     		movs	r0, #0
 333:Generated_Source\PSoC5/isr_rch.c **** }
 204              		.loc 1 333 0
 205 0010 7047     		bx	lr
 206              	.L23:
 207 0012 00BF     		.align	2
 208              	.L22:
 209 0014 00E100E0 		.word	-536813312
 210              		.cfi_endproc
 211              	.LFE72:
 212              		.size	isr_rch_GetState, .-isr_rch_GetState
 213              		.section	.text.isr_rch_Disable,"ax",%progbits
 214              		.align	2
 215              		.global	isr_rch_Disable
 216              		.thumb
 217              		.thumb_func
 218              		.type	isr_rch_Disable, %function
 219              	isr_rch_Disable:
 220              	.LFB73:
 334:Generated_Source\PSoC5/isr_rch.c **** 
 335:Generated_Source\PSoC5/isr_rch.c **** 
 336:Generated_Source\PSoC5/isr_rch.c **** /*******************************************************************************
 337:Generated_Source\PSoC5/isr_rch.c **** * Function Name: isr_rch_Disable
 338:Generated_Source\PSoC5/isr_rch.c **** ********************************************************************************
 339:Generated_Source\PSoC5/isr_rch.c **** *
 340:Generated_Source\PSoC5/isr_rch.c **** * Summary:
 341:Generated_Source\PSoC5/isr_rch.c **** *   Disables the Interrupt in the interrupt controller.
 342:Generated_Source\PSoC5/isr_rch.c **** *
 343:Generated_Source\PSoC5/isr_rch.c **** * Parameters:
 344:Generated_Source\PSoC5/isr_rch.c **** *   None
 345:Generated_Source\PSoC5/isr_rch.c **** *
 346:Generated_Source\PSoC5/isr_rch.c **** * Return:
 347:Generated_Source\PSoC5/isr_rch.c **** *   None
 348:Generated_Source\PSoC5/isr_rch.c **** *
 349:Generated_Source\PSoC5/isr_rch.c **** *******************************************************************************/
 350:Generated_Source\PSoC5/isr_rch.c **** void isr_rch_Disable(void)
ARM GAS  C:\Users\pcoud\AppData\Local\Temp\ccsJEvzk.s 			page 11


 351:Generated_Source\PSoC5/isr_rch.c **** {
 221              		.loc 1 351 0
 222              		.cfi_startproc
 223              		@ args = 0, pretend = 0, frame = 0
 224              		@ frame_needed = 0, uses_anonymous_args = 0
 225              		@ link register save eliminated.
 352:Generated_Source\PSoC5/isr_rch.c ****     /* Disable the general interrupt. */
 353:Generated_Source\PSoC5/isr_rch.c ****     *isr_rch_INTC_CLR_EN = isr_rch__INTC_MASK;
 226              		.loc 1 353 0
 227 0000 0222     		movs	r2, #2
 228 0002 014B     		ldr	r3, .L25
 229 0004 1A60     		str	r2, [r3]
 230 0006 7047     		bx	lr
 231              	.L26:
 232              		.align	2
 233              	.L25:
 234 0008 80E100E0 		.word	-536813184
 235              		.cfi_endproc
 236              	.LFE73:
 237              		.size	isr_rch_Disable, .-isr_rch_Disable
 238              		.section	.text.isr_rch_Start,"ax",%progbits
 239              		.align	2
 240              		.global	isr_rch_Start
 241              		.thumb
 242              		.thumb_func
 243              		.type	isr_rch_Start, %function
 244              	isr_rch_Start:
 245              	.LFB63:
  63:Generated_Source\PSoC5/isr_rch.c ****     /* For all we know the interrupt is active. */
 246              		.loc 1 63 0
 247              		.cfi_startproc
 248              		@ args = 0, pretend = 0, frame = 0
 249              		@ frame_needed = 0, uses_anonymous_args = 0
 250 0000 08B5     		push	{r3, lr}
 251              		.cfi_def_cfa_offset 8
 252              		.cfi_offset 3, -8
 253              		.cfi_offset 14, -4
  65:Generated_Source\PSoC5/isr_rch.c **** 
 254              		.loc 1 65 0
 255 0002 FFF7FEFF 		bl	isr_rch_Disable
 256              	.LVL7:
  68:Generated_Source\PSoC5/isr_rch.c **** 
 257              		.loc 1 68 0
 258 0006 0448     		ldr	r0, .L29
 259 0008 FFF7FEFF 		bl	isr_rch_SetVector
 260              	.LVL8:
  71:Generated_Source\PSoC5/isr_rch.c **** 
 261              		.loc 1 71 0
 262 000c 0720     		movs	r0, #7
 263 000e FFF7FEFF 		bl	isr_rch_SetPriority
 264              	.LVL9:
  74:Generated_Source\PSoC5/isr_rch.c **** }
 265              		.loc 1 74 0
 266 0012 FFF7FEFF 		bl	isr_rch_Enable
 267              	.LVL10:
 268 0016 08BD     		pop	{r3, pc}
 269              	.L30:
ARM GAS  C:\Users\pcoud\AppData\Local\Temp\ccsJEvzk.s 			page 12


 270              		.align	2
 271              	.L29:
 272 0018 00000000 		.word	isr_rch_Interrupt
 273              		.cfi_endproc
 274              	.LFE63:
 275              		.size	isr_rch_Start, .-isr_rch_Start
 276              		.section	.text.isr_rch_StartEx,"ax",%progbits
 277              		.align	2
 278              		.global	isr_rch_StartEx
 279              		.thumb
 280              		.thumb_func
 281              		.type	isr_rch_StartEx, %function
 282              	isr_rch_StartEx:
 283              	.LFB64:
 106:Generated_Source\PSoC5/isr_rch.c ****     /* For all we know the interrupt is active. */
 284              		.loc 1 106 0
 285              		.cfi_startproc
 286              		@ args = 0, pretend = 0, frame = 0
 287              		@ frame_needed = 0, uses_anonymous_args = 0
 288              	.LVL11:
 289 0000 10B5     		push	{r4, lr}
 290              		.cfi_def_cfa_offset 8
 291              		.cfi_offset 4, -8
 292              		.cfi_offset 14, -4
 293 0002 0446     		mov	r4, r0
 108:Generated_Source\PSoC5/isr_rch.c **** 
 294              		.loc 1 108 0
 295 0004 FFF7FEFF 		bl	isr_rch_Disable
 296              	.LVL12:
 111:Generated_Source\PSoC5/isr_rch.c **** 
 297              		.loc 1 111 0
 298 0008 2046     		mov	r0, r4
 299 000a FFF7FEFF 		bl	isr_rch_SetVector
 300              	.LVL13:
 114:Generated_Source\PSoC5/isr_rch.c **** 
 301              		.loc 1 114 0
 302 000e 0720     		movs	r0, #7
 303 0010 FFF7FEFF 		bl	isr_rch_SetPriority
 304              	.LVL14:
 117:Generated_Source\PSoC5/isr_rch.c **** }
 305              		.loc 1 117 0
 306 0014 FFF7FEFF 		bl	isr_rch_Enable
 307              	.LVL15:
 308 0018 10BD     		pop	{r4, pc}
 309              		.cfi_endproc
 310              	.LFE64:
 311              		.size	isr_rch_StartEx, .-isr_rch_StartEx
 312 001a 00BF     		.section	.text.isr_rch_Stop,"ax",%progbits
 313              		.align	2
 314              		.global	isr_rch_Stop
 315              		.thumb
 316              		.thumb_func
 317              		.type	isr_rch_Stop, %function
 318              	isr_rch_Stop:
 319              	.LFB65:
 136:Generated_Source\PSoC5/isr_rch.c ****     /* Disable this interrupt. */
 320              		.loc 1 136 0
ARM GAS  C:\Users\pcoud\AppData\Local\Temp\ccsJEvzk.s 			page 13


 321              		.cfi_startproc
 322              		@ args = 0, pretend = 0, frame = 0
 323              		@ frame_needed = 0, uses_anonymous_args = 0
 324 0000 08B5     		push	{r3, lr}
 325              		.cfi_def_cfa_offset 8
 326              		.cfi_offset 3, -8
 327              		.cfi_offset 14, -4
 138:Generated_Source\PSoC5/isr_rch.c **** 
 328              		.loc 1 138 0
 329 0002 FFF7FEFF 		bl	isr_rch_Disable
 330              	.LVL16:
 141:Generated_Source\PSoC5/isr_rch.c **** }
 331              		.loc 1 141 0
 332 0006 0248     		ldr	r0, .L35
 333 0008 FFF7FEFF 		bl	isr_rch_SetVector
 334              	.LVL17:
 335 000c 08BD     		pop	{r3, pc}
 336              	.L36:
 337 000e 00BF     		.align	2
 338              	.L35:
 339 0010 00000000 		.word	IntDefaultHandler
 340              		.cfi_endproc
 341              	.LFE65:
 342              		.size	isr_rch_Stop, .-isr_rch_Stop
 343              		.section	.text.isr_rch_SetPending,"ax",%progbits
 344              		.align	2
 345              		.global	isr_rch_SetPending
 346              		.thumb
 347              		.thumb_func
 348              		.type	isr_rch_SetPending, %function
 349              	isr_rch_SetPending:
 350              	.LFB74:
 354:Generated_Source\PSoC5/isr_rch.c **** }
 355:Generated_Source\PSoC5/isr_rch.c **** 
 356:Generated_Source\PSoC5/isr_rch.c **** 
 357:Generated_Source\PSoC5/isr_rch.c **** /*******************************************************************************
 358:Generated_Source\PSoC5/isr_rch.c **** * Function Name: isr_rch_SetPending
 359:Generated_Source\PSoC5/isr_rch.c **** ********************************************************************************
 360:Generated_Source\PSoC5/isr_rch.c **** *
 361:Generated_Source\PSoC5/isr_rch.c **** * Summary:
 362:Generated_Source\PSoC5/isr_rch.c **** *   Causes the Interrupt to enter the pending state, a software method of
 363:Generated_Source\PSoC5/isr_rch.c **** *   generating the interrupt.
 364:Generated_Source\PSoC5/isr_rch.c **** *
 365:Generated_Source\PSoC5/isr_rch.c **** * Parameters:
 366:Generated_Source\PSoC5/isr_rch.c **** *   None
 367:Generated_Source\PSoC5/isr_rch.c **** *
 368:Generated_Source\PSoC5/isr_rch.c **** * Return:
 369:Generated_Source\PSoC5/isr_rch.c **** *   None
 370:Generated_Source\PSoC5/isr_rch.c **** *
 371:Generated_Source\PSoC5/isr_rch.c **** * Side Effects:
 372:Generated_Source\PSoC5/isr_rch.c **** *   If interrupts are enabled and the interrupt is set up properly, the ISR is
 373:Generated_Source\PSoC5/isr_rch.c **** *   entered (depending on the priority of this interrupt and other pending 
 374:Generated_Source\PSoC5/isr_rch.c **** *   interrupts).
 375:Generated_Source\PSoC5/isr_rch.c **** *
 376:Generated_Source\PSoC5/isr_rch.c **** *******************************************************************************/
 377:Generated_Source\PSoC5/isr_rch.c **** void isr_rch_SetPending(void)
 378:Generated_Source\PSoC5/isr_rch.c **** {
ARM GAS  C:\Users\pcoud\AppData\Local\Temp\ccsJEvzk.s 			page 14


 351              		.loc 1 378 0
 352              		.cfi_startproc
 353              		@ args = 0, pretend = 0, frame = 0
 354              		@ frame_needed = 0, uses_anonymous_args = 0
 355              		@ link register save eliminated.
 379:Generated_Source\PSoC5/isr_rch.c ****     *isr_rch_INTC_SET_PD = isr_rch__INTC_MASK;
 356              		.loc 1 379 0
 357 0000 0222     		movs	r2, #2
 358 0002 014B     		ldr	r3, .L38
 359 0004 1A60     		str	r2, [r3]
 360 0006 7047     		bx	lr
 361              	.L39:
 362              		.align	2
 363              	.L38:
 364 0008 00E200E0 		.word	-536813056
 365              		.cfi_endproc
 366              	.LFE74:
 367              		.size	isr_rch_SetPending, .-isr_rch_SetPending
 368              		.section	.text.isr_rch_ClearPending,"ax",%progbits
 369              		.align	2
 370              		.global	isr_rch_ClearPending
 371              		.thumb
 372              		.thumb_func
 373              		.type	isr_rch_ClearPending, %function
 374              	isr_rch_ClearPending:
 375              	.LFB75:
 380:Generated_Source\PSoC5/isr_rch.c **** }
 381:Generated_Source\PSoC5/isr_rch.c **** 
 382:Generated_Source\PSoC5/isr_rch.c **** 
 383:Generated_Source\PSoC5/isr_rch.c **** /*******************************************************************************
 384:Generated_Source\PSoC5/isr_rch.c **** * Function Name: isr_rch_ClearPending
 385:Generated_Source\PSoC5/isr_rch.c **** ********************************************************************************
 386:Generated_Source\PSoC5/isr_rch.c **** *
 387:Generated_Source\PSoC5/isr_rch.c **** * Summary:
 388:Generated_Source\PSoC5/isr_rch.c **** *   Clears a pending interrupt in the interrupt controller.
 389:Generated_Source\PSoC5/isr_rch.c **** *
 390:Generated_Source\PSoC5/isr_rch.c **** *   Note Some interrupt sources are clear-on-read and require the block 
 391:Generated_Source\PSoC5/isr_rch.c **** *   interrupt/status register to be read/cleared with the appropriate block API 
 392:Generated_Source\PSoC5/isr_rch.c **** *   (GPIO, UART, and so on). Otherwise the ISR will continue to remain in 
 393:Generated_Source\PSoC5/isr_rch.c **** *   pending state even though the interrupt itself is cleared using this API.
 394:Generated_Source\PSoC5/isr_rch.c **** *
 395:Generated_Source\PSoC5/isr_rch.c **** * Parameters:
 396:Generated_Source\PSoC5/isr_rch.c **** *   None
 397:Generated_Source\PSoC5/isr_rch.c **** *
 398:Generated_Source\PSoC5/isr_rch.c **** * Return:
 399:Generated_Source\PSoC5/isr_rch.c **** *   None
 400:Generated_Source\PSoC5/isr_rch.c **** *
 401:Generated_Source\PSoC5/isr_rch.c **** *******************************************************************************/
 402:Generated_Source\PSoC5/isr_rch.c **** void isr_rch_ClearPending(void)
 403:Generated_Source\PSoC5/isr_rch.c **** {
 376              		.loc 1 403 0
 377              		.cfi_startproc
 378              		@ args = 0, pretend = 0, frame = 0
 379              		@ frame_needed = 0, uses_anonymous_args = 0
 380              		@ link register save eliminated.
 404:Generated_Source\PSoC5/isr_rch.c ****     *isr_rch_INTC_CLR_PD = isr_rch__INTC_MASK;
 381              		.loc 1 404 0
ARM GAS  C:\Users\pcoud\AppData\Local\Temp\ccsJEvzk.s 			page 15


 382 0000 0222     		movs	r2, #2
 383 0002 014B     		ldr	r3, .L41
 384 0004 1A60     		str	r2, [r3]
 385 0006 7047     		bx	lr
 386              	.L42:
 387              		.align	2
 388              	.L41:
 389 0008 80E200E0 		.word	-536812928
 390              		.cfi_endproc
 391              	.LFE75:
 392              		.size	isr_rch_ClearPending, .-isr_rch_ClearPending
 393              		.text
 394              	.Letext0:
 395              		.file 2 "c:\\program files (x86)\\cypress\\psoc creator\\4.1\\psoc creator\\import\\gnu\\arm\\5.4.
 396              		.file 3 "c:\\program files (x86)\\cypress\\psoc creator\\4.1\\psoc creator\\import\\gnu\\arm\\5.4.
 397              		.file 4 "Generated_Source\\PSoC5/cytypes.h"
 398              		.file 5 "Generated_Source\\PSoC5/core_cm3.h"