ARM GAS  C:\Users\pcoud\AppData\Local\Temp\ccEH0Ric.s 			page 1


   1              		.syntax unified
   2              		.cpu cortex-m3
   3              		.fpu softvfp
   4              		.eabi_attribute 20, 1
   5              		.eabi_attribute 21, 1
   6              		.eabi_attribute 23, 3
   7              		.eabi_attribute 24, 1
   8              		.eabi_attribute 25, 1
   9              		.eabi_attribute 26, 1
  10              		.eabi_attribute 30, 1
  11              		.eabi_attribute 34, 1
  12              		.eabi_attribute 18, 4
  13              		.thumb
  14              		.syntax unified
  15              		.file	"isr_rbat.c"
  16              		.text
  17              	.Ltext0:
  18              		.cfi_sections	.debug_frame
  19              		.section	.text.isr_rbat_Interrupt,"ax",%progbits
  20              		.align	2
  21              		.global	isr_rbat_Interrupt
  22              		.thumb
  23              		.thumb_func
  24              		.type	isr_rbat_Interrupt, %function
  25              	isr_rbat_Interrupt:
  26              	.LFB66:
  27              		.file 1 "Generated_Source\\PSoC5\\isr_rbat.c"
   1:Generated_Source\PSoC5/isr_rbat.c **** /*******************************************************************************
   2:Generated_Source\PSoC5/isr_rbat.c **** * File Name: isr_rbat.c  
   3:Generated_Source\PSoC5/isr_rbat.c **** * Version 1.70
   4:Generated_Source\PSoC5/isr_rbat.c **** *
   5:Generated_Source\PSoC5/isr_rbat.c **** *  Description:
   6:Generated_Source\PSoC5/isr_rbat.c **** *   API for controlling the state of an interrupt.
   7:Generated_Source\PSoC5/isr_rbat.c **** *
   8:Generated_Source\PSoC5/isr_rbat.c **** *
   9:Generated_Source\PSoC5/isr_rbat.c **** *  Note:
  10:Generated_Source\PSoC5/isr_rbat.c **** *
  11:Generated_Source\PSoC5/isr_rbat.c **** ********************************************************************************
  12:Generated_Source\PSoC5/isr_rbat.c **** * Copyright 2008-2015, Cypress Semiconductor Corporation.  All rights reserved.
  13:Generated_Source\PSoC5/isr_rbat.c **** * You may use this file only in accordance with the license, terms, conditions, 
  14:Generated_Source\PSoC5/isr_rbat.c **** * disclaimers, and limitations in the end user license agreement accompanying 
  15:Generated_Source\PSoC5/isr_rbat.c **** * the software package with which this file was provided.
  16:Generated_Source\PSoC5/isr_rbat.c **** *******************************************************************************/
  17:Generated_Source\PSoC5/isr_rbat.c **** 
  18:Generated_Source\PSoC5/isr_rbat.c **** 
  19:Generated_Source\PSoC5/isr_rbat.c **** #include <cydevice_trm.h>
  20:Generated_Source\PSoC5/isr_rbat.c **** #include <CyLib.h>
  21:Generated_Source\PSoC5/isr_rbat.c **** #include <isr_rbat.h>
  22:Generated_Source\PSoC5/isr_rbat.c **** #include "cyapicallbacks.h"
  23:Generated_Source\PSoC5/isr_rbat.c **** 
  24:Generated_Source\PSoC5/isr_rbat.c **** #if !defined(isr_rbat__REMOVED) /* Check for removal by optimization */
  25:Generated_Source\PSoC5/isr_rbat.c **** 
  26:Generated_Source\PSoC5/isr_rbat.c **** /*******************************************************************************
  27:Generated_Source\PSoC5/isr_rbat.c **** *  Place your includes, defines and code here 
  28:Generated_Source\PSoC5/isr_rbat.c **** ********************************************************************************/
  29:Generated_Source\PSoC5/isr_rbat.c **** /* `#START isr_rbat_intc` */
  30:Generated_Source\PSoC5/isr_rbat.c **** #include <project.h>
ARM GAS  C:\Users\pcoud\AppData\Local\Temp\ccEH0Ric.s 			page 2


  31:Generated_Source\PSoC5/isr_rbat.c **** extern uint16 batrouge;
  32:Generated_Source\PSoC5/isr_rbat.c **** /* `#END` */
  33:Generated_Source\PSoC5/isr_rbat.c **** 
  34:Generated_Source\PSoC5/isr_rbat.c **** #ifndef CYINT_IRQ_BASE
  35:Generated_Source\PSoC5/isr_rbat.c **** #define CYINT_IRQ_BASE      16
  36:Generated_Source\PSoC5/isr_rbat.c **** #endif /* CYINT_IRQ_BASE */
  37:Generated_Source\PSoC5/isr_rbat.c **** #ifndef CYINT_VECT_TABLE
  38:Generated_Source\PSoC5/isr_rbat.c **** #define CYINT_VECT_TABLE    ((cyisraddress **) CYREG_NVIC_VECT_OFFSET)
  39:Generated_Source\PSoC5/isr_rbat.c **** #endif /* CYINT_VECT_TABLE */
  40:Generated_Source\PSoC5/isr_rbat.c **** 
  41:Generated_Source\PSoC5/isr_rbat.c **** /* Declared in startup, used to set unused interrupts to. */
  42:Generated_Source\PSoC5/isr_rbat.c **** CY_ISR_PROTO(IntDefaultHandler);
  43:Generated_Source\PSoC5/isr_rbat.c **** 
  44:Generated_Source\PSoC5/isr_rbat.c **** 
  45:Generated_Source\PSoC5/isr_rbat.c **** /*******************************************************************************
  46:Generated_Source\PSoC5/isr_rbat.c **** * Function Name: isr_rbat_Start
  47:Generated_Source\PSoC5/isr_rbat.c **** ********************************************************************************
  48:Generated_Source\PSoC5/isr_rbat.c **** *
  49:Generated_Source\PSoC5/isr_rbat.c **** * Summary:
  50:Generated_Source\PSoC5/isr_rbat.c **** *  Set up the interrupt and enable it. This function disables the interrupt, 
  51:Generated_Source\PSoC5/isr_rbat.c **** *  sets the default interrupt vector, sets the priority from the value in the
  52:Generated_Source\PSoC5/isr_rbat.c **** *  Design Wide Resources Interrupt Editor, then enables the interrupt to the 
  53:Generated_Source\PSoC5/isr_rbat.c **** *  interrupt controller.
  54:Generated_Source\PSoC5/isr_rbat.c **** *
  55:Generated_Source\PSoC5/isr_rbat.c **** * Parameters:  
  56:Generated_Source\PSoC5/isr_rbat.c **** *   None
  57:Generated_Source\PSoC5/isr_rbat.c **** *
  58:Generated_Source\PSoC5/isr_rbat.c **** * Return:
  59:Generated_Source\PSoC5/isr_rbat.c **** *   None
  60:Generated_Source\PSoC5/isr_rbat.c **** *
  61:Generated_Source\PSoC5/isr_rbat.c **** *******************************************************************************/
  62:Generated_Source\PSoC5/isr_rbat.c **** void isr_rbat_Start(void)
  63:Generated_Source\PSoC5/isr_rbat.c **** {
  64:Generated_Source\PSoC5/isr_rbat.c ****     /* For all we know the interrupt is active. */
  65:Generated_Source\PSoC5/isr_rbat.c ****     isr_rbat_Disable();
  66:Generated_Source\PSoC5/isr_rbat.c **** 
  67:Generated_Source\PSoC5/isr_rbat.c ****     /* Set the ISR to point to the isr_rbat Interrupt. */
  68:Generated_Source\PSoC5/isr_rbat.c ****     isr_rbat_SetVector(&isr_rbat_Interrupt);
  69:Generated_Source\PSoC5/isr_rbat.c **** 
  70:Generated_Source\PSoC5/isr_rbat.c ****     /* Set the priority. */
  71:Generated_Source\PSoC5/isr_rbat.c ****     isr_rbat_SetPriority((uint8)isr_rbat_INTC_PRIOR_NUMBER);
  72:Generated_Source\PSoC5/isr_rbat.c **** 
  73:Generated_Source\PSoC5/isr_rbat.c ****     /* Enable it. */
  74:Generated_Source\PSoC5/isr_rbat.c ****     isr_rbat_Enable();
  75:Generated_Source\PSoC5/isr_rbat.c **** }
  76:Generated_Source\PSoC5/isr_rbat.c **** 
  77:Generated_Source\PSoC5/isr_rbat.c **** 
  78:Generated_Source\PSoC5/isr_rbat.c **** /*******************************************************************************
  79:Generated_Source\PSoC5/isr_rbat.c **** * Function Name: isr_rbat_StartEx
  80:Generated_Source\PSoC5/isr_rbat.c **** ********************************************************************************
  81:Generated_Source\PSoC5/isr_rbat.c **** *
  82:Generated_Source\PSoC5/isr_rbat.c **** * Summary:
  83:Generated_Source\PSoC5/isr_rbat.c **** *  Sets up the interrupt and enables it. This function disables the interrupt,
  84:Generated_Source\PSoC5/isr_rbat.c **** *  sets the interrupt vector based on the address passed in, sets the priority 
  85:Generated_Source\PSoC5/isr_rbat.c **** *  from the value in the Design Wide Resources Interrupt Editor, then enables 
  86:Generated_Source\PSoC5/isr_rbat.c **** *  the interrupt to the interrupt controller.
  87:Generated_Source\PSoC5/isr_rbat.c **** *  
ARM GAS  C:\Users\pcoud\AppData\Local\Temp\ccEH0Ric.s 			page 3


  88:Generated_Source\PSoC5/isr_rbat.c **** *  When defining ISR functions, the CY_ISR and CY_ISR_PROTO macros should be 
  89:Generated_Source\PSoC5/isr_rbat.c **** *  used to provide consistent definition across compilers:
  90:Generated_Source\PSoC5/isr_rbat.c **** *  
  91:Generated_Source\PSoC5/isr_rbat.c **** *  Function definition example:
  92:Generated_Source\PSoC5/isr_rbat.c **** *   CY_ISR(MyISR)
  93:Generated_Source\PSoC5/isr_rbat.c **** *   {
  94:Generated_Source\PSoC5/isr_rbat.c **** *   }
  95:Generated_Source\PSoC5/isr_rbat.c **** *   Function prototype example:
  96:Generated_Source\PSoC5/isr_rbat.c **** *   CY_ISR_PROTO(MyISR);
  97:Generated_Source\PSoC5/isr_rbat.c **** *
  98:Generated_Source\PSoC5/isr_rbat.c **** * Parameters:  
  99:Generated_Source\PSoC5/isr_rbat.c **** *   address: Address of the ISR to set in the interrupt vector table.
 100:Generated_Source\PSoC5/isr_rbat.c **** *
 101:Generated_Source\PSoC5/isr_rbat.c **** * Return:
 102:Generated_Source\PSoC5/isr_rbat.c **** *   None
 103:Generated_Source\PSoC5/isr_rbat.c **** *
 104:Generated_Source\PSoC5/isr_rbat.c **** *******************************************************************************/
 105:Generated_Source\PSoC5/isr_rbat.c **** void isr_rbat_StartEx(cyisraddress address)
 106:Generated_Source\PSoC5/isr_rbat.c **** {
 107:Generated_Source\PSoC5/isr_rbat.c ****     /* For all we know the interrupt is active. */
 108:Generated_Source\PSoC5/isr_rbat.c ****     isr_rbat_Disable();
 109:Generated_Source\PSoC5/isr_rbat.c **** 
 110:Generated_Source\PSoC5/isr_rbat.c ****     /* Set the ISR to point to the isr_rbat Interrupt. */
 111:Generated_Source\PSoC5/isr_rbat.c ****     isr_rbat_SetVector(address);
 112:Generated_Source\PSoC5/isr_rbat.c **** 
 113:Generated_Source\PSoC5/isr_rbat.c ****     /* Set the priority. */
 114:Generated_Source\PSoC5/isr_rbat.c ****     isr_rbat_SetPriority((uint8)isr_rbat_INTC_PRIOR_NUMBER);
 115:Generated_Source\PSoC5/isr_rbat.c **** 
 116:Generated_Source\PSoC5/isr_rbat.c ****     /* Enable it. */
 117:Generated_Source\PSoC5/isr_rbat.c ****     isr_rbat_Enable();
 118:Generated_Source\PSoC5/isr_rbat.c **** }
 119:Generated_Source\PSoC5/isr_rbat.c **** 
 120:Generated_Source\PSoC5/isr_rbat.c **** 
 121:Generated_Source\PSoC5/isr_rbat.c **** /*******************************************************************************
 122:Generated_Source\PSoC5/isr_rbat.c **** * Function Name: isr_rbat_Stop
 123:Generated_Source\PSoC5/isr_rbat.c **** ********************************************************************************
 124:Generated_Source\PSoC5/isr_rbat.c **** *
 125:Generated_Source\PSoC5/isr_rbat.c **** * Summary:
 126:Generated_Source\PSoC5/isr_rbat.c **** *   Disables and removes the interrupt.
 127:Generated_Source\PSoC5/isr_rbat.c **** *
 128:Generated_Source\PSoC5/isr_rbat.c **** * Parameters:  
 129:Generated_Source\PSoC5/isr_rbat.c **** *   None
 130:Generated_Source\PSoC5/isr_rbat.c **** *
 131:Generated_Source\PSoC5/isr_rbat.c **** * Return:
 132:Generated_Source\PSoC5/isr_rbat.c **** *   None
 133:Generated_Source\PSoC5/isr_rbat.c **** *
 134:Generated_Source\PSoC5/isr_rbat.c **** *******************************************************************************/
 135:Generated_Source\PSoC5/isr_rbat.c **** void isr_rbat_Stop(void)
 136:Generated_Source\PSoC5/isr_rbat.c **** {
 137:Generated_Source\PSoC5/isr_rbat.c ****     /* Disable this interrupt. */
 138:Generated_Source\PSoC5/isr_rbat.c ****     isr_rbat_Disable();
 139:Generated_Source\PSoC5/isr_rbat.c **** 
 140:Generated_Source\PSoC5/isr_rbat.c ****     /* Set the ISR to point to the passive one. */
 141:Generated_Source\PSoC5/isr_rbat.c ****     isr_rbat_SetVector(&IntDefaultHandler);
 142:Generated_Source\PSoC5/isr_rbat.c **** }
 143:Generated_Source\PSoC5/isr_rbat.c **** 
 144:Generated_Source\PSoC5/isr_rbat.c **** 
ARM GAS  C:\Users\pcoud\AppData\Local\Temp\ccEH0Ric.s 			page 4


 145:Generated_Source\PSoC5/isr_rbat.c **** /*******************************************************************************
 146:Generated_Source\PSoC5/isr_rbat.c **** * Function Name: isr_rbat_Interrupt
 147:Generated_Source\PSoC5/isr_rbat.c **** ********************************************************************************
 148:Generated_Source\PSoC5/isr_rbat.c **** *
 149:Generated_Source\PSoC5/isr_rbat.c **** * Summary:
 150:Generated_Source\PSoC5/isr_rbat.c **** *   The default Interrupt Service Routine for isr_rbat.
 151:Generated_Source\PSoC5/isr_rbat.c **** *
 152:Generated_Source\PSoC5/isr_rbat.c **** *   Add custom code between the coments to keep the next version of this file
 153:Generated_Source\PSoC5/isr_rbat.c **** *   from over writting your code.
 154:Generated_Source\PSoC5/isr_rbat.c **** *
 155:Generated_Source\PSoC5/isr_rbat.c **** * Parameters:  
 156:Generated_Source\PSoC5/isr_rbat.c **** *
 157:Generated_Source\PSoC5/isr_rbat.c **** * Return:
 158:Generated_Source\PSoC5/isr_rbat.c **** *   None
 159:Generated_Source\PSoC5/isr_rbat.c **** *
 160:Generated_Source\PSoC5/isr_rbat.c **** *******************************************************************************/
 161:Generated_Source\PSoC5/isr_rbat.c **** CY_ISR(isr_rbat_Interrupt)
 162:Generated_Source\PSoC5/isr_rbat.c **** {
  28              		.loc 1 162 0
  29              		.cfi_startproc
  30              		@ args = 0, pretend = 0, frame = 0
  31              		@ frame_needed = 0, uses_anonymous_args = 0
  32              		@ link register save eliminated.
 163:Generated_Source\PSoC5/isr_rbat.c ****     #ifdef isr_rbat_INTERRUPT_INTERRUPT_CALLBACK
 164:Generated_Source\PSoC5/isr_rbat.c ****         isr_rbat_Interrupt_InterruptCallback();
 165:Generated_Source\PSoC5/isr_rbat.c ****     #endif /* isr_rbat_INTERRUPT_INTERRUPT_CALLBACK */ 
 166:Generated_Source\PSoC5/isr_rbat.c **** 
 167:Generated_Source\PSoC5/isr_rbat.c ****     /*  Place your Interrupt code here. */
 168:Generated_Source\PSoC5/isr_rbat.c ****     /* `#START isr_rbat_Interrupt` */
 169:Generated_Source\PSoC5/isr_rbat.c ****     batrouge=batrouge+1;
  33              		.loc 1 169 0
  34 0000 024A     		ldr	r2, .L2
  35 0002 1388     		ldrh	r3, [r2]
  36 0004 0133     		adds	r3, r3, #1
  37 0006 1380     		strh	r3, [r2]	@ movhi
  38 0008 7047     		bx	lr
  39              	.L3:
  40 000a 00BF     		.align	2
  41              	.L2:
  42 000c 00000000 		.word	batrouge
  43              		.cfi_endproc
  44              	.LFE66:
  45              		.size	isr_rbat_Interrupt, .-isr_rbat_Interrupt
  46              		.section	.text.isr_rbat_SetVector,"ax",%progbits
  47              		.align	2
  48              		.global	isr_rbat_SetVector
  49              		.thumb
  50              		.thumb_func
  51              		.type	isr_rbat_SetVector, %function
  52              	isr_rbat_SetVector:
  53              	.LFB67:
 170:Generated_Source\PSoC5/isr_rbat.c ****     /* `#END` */
 171:Generated_Source\PSoC5/isr_rbat.c **** }
 172:Generated_Source\PSoC5/isr_rbat.c **** 
 173:Generated_Source\PSoC5/isr_rbat.c **** 
 174:Generated_Source\PSoC5/isr_rbat.c **** /*******************************************************************************
 175:Generated_Source\PSoC5/isr_rbat.c **** * Function Name: isr_rbat_SetVector
ARM GAS  C:\Users\pcoud\AppData\Local\Temp\ccEH0Ric.s 			page 5


 176:Generated_Source\PSoC5/isr_rbat.c **** ********************************************************************************
 177:Generated_Source\PSoC5/isr_rbat.c **** *
 178:Generated_Source\PSoC5/isr_rbat.c **** * Summary:
 179:Generated_Source\PSoC5/isr_rbat.c **** *   Change the ISR vector for the Interrupt. Note calling isr_rbat_Start
 180:Generated_Source\PSoC5/isr_rbat.c **** *   will override any effect this method would have had. To set the vector 
 181:Generated_Source\PSoC5/isr_rbat.c **** *   before the component has been started use isr_rbat_StartEx instead.
 182:Generated_Source\PSoC5/isr_rbat.c **** * 
 183:Generated_Source\PSoC5/isr_rbat.c **** *   When defining ISR functions, the CY_ISR and CY_ISR_PROTO macros should be 
 184:Generated_Source\PSoC5/isr_rbat.c **** *   used to provide consistent definition across compilers:
 185:Generated_Source\PSoC5/isr_rbat.c **** *
 186:Generated_Source\PSoC5/isr_rbat.c **** *   Function definition example:
 187:Generated_Source\PSoC5/isr_rbat.c **** *   CY_ISR(MyISR)
 188:Generated_Source\PSoC5/isr_rbat.c **** *   {
 189:Generated_Source\PSoC5/isr_rbat.c **** *   }
 190:Generated_Source\PSoC5/isr_rbat.c **** *
 191:Generated_Source\PSoC5/isr_rbat.c **** *   Function prototype example:
 192:Generated_Source\PSoC5/isr_rbat.c **** *     CY_ISR_PROTO(MyISR);
 193:Generated_Source\PSoC5/isr_rbat.c **** *
 194:Generated_Source\PSoC5/isr_rbat.c **** * Parameters:
 195:Generated_Source\PSoC5/isr_rbat.c **** *   address: Address of the ISR to set in the interrupt vector table.
 196:Generated_Source\PSoC5/isr_rbat.c **** *
 197:Generated_Source\PSoC5/isr_rbat.c **** * Return:
 198:Generated_Source\PSoC5/isr_rbat.c **** *   None
 199:Generated_Source\PSoC5/isr_rbat.c **** *
 200:Generated_Source\PSoC5/isr_rbat.c **** *******************************************************************************/
 201:Generated_Source\PSoC5/isr_rbat.c **** void isr_rbat_SetVector(cyisraddress address)
 202:Generated_Source\PSoC5/isr_rbat.c **** {
  54              		.loc 1 202 0
  55              		.cfi_startproc
  56              		@ args = 0, pretend = 0, frame = 0
  57              		@ frame_needed = 0, uses_anonymous_args = 0
  58              		@ link register save eliminated.
  59              	.LVL0:
 203:Generated_Source\PSoC5/isr_rbat.c ****     cyisraddress * ramVectorTable;
 204:Generated_Source\PSoC5/isr_rbat.c **** 
 205:Generated_Source\PSoC5/isr_rbat.c ****     ramVectorTable = (cyisraddress *) *CYINT_VECT_TABLE;
  60              		.loc 1 205 0
  61 0000 014B     		ldr	r3, .L5
  62 0002 1B68     		ldr	r3, [r3]
  63              	.LVL1:
 206:Generated_Source\PSoC5/isr_rbat.c **** 
 207:Generated_Source\PSoC5/isr_rbat.c ****     ramVectorTable[CYINT_IRQ_BASE + (uint32)isr_rbat__INTC_NUMBER] = address;
  64              		.loc 1 207 0
  65 0004 1864     		str	r0, [r3, #64]
  66 0006 7047     		bx	lr
  67              	.L6:
  68              		.align	2
  69              	.L5:
  70 0008 08ED00E0 		.word	-536810232
  71              		.cfi_endproc
  72              	.LFE67:
  73              		.size	isr_rbat_SetVector, .-isr_rbat_SetVector
  74              		.section	.text.isr_rbat_GetVector,"ax",%progbits
  75              		.align	2
  76              		.global	isr_rbat_GetVector
  77              		.thumb
  78              		.thumb_func
ARM GAS  C:\Users\pcoud\AppData\Local\Temp\ccEH0Ric.s 			page 6


  79              		.type	isr_rbat_GetVector, %function
  80              	isr_rbat_GetVector:
  81              	.LFB68:
 208:Generated_Source\PSoC5/isr_rbat.c **** }
 209:Generated_Source\PSoC5/isr_rbat.c **** 
 210:Generated_Source\PSoC5/isr_rbat.c **** 
 211:Generated_Source\PSoC5/isr_rbat.c **** /*******************************************************************************
 212:Generated_Source\PSoC5/isr_rbat.c **** * Function Name: isr_rbat_GetVector
 213:Generated_Source\PSoC5/isr_rbat.c **** ********************************************************************************
 214:Generated_Source\PSoC5/isr_rbat.c **** *
 215:Generated_Source\PSoC5/isr_rbat.c **** * Summary:
 216:Generated_Source\PSoC5/isr_rbat.c **** *   Gets the "address" of the current ISR vector for the Interrupt.
 217:Generated_Source\PSoC5/isr_rbat.c **** *
 218:Generated_Source\PSoC5/isr_rbat.c **** * Parameters:
 219:Generated_Source\PSoC5/isr_rbat.c **** *   None
 220:Generated_Source\PSoC5/isr_rbat.c **** *
 221:Generated_Source\PSoC5/isr_rbat.c **** * Return:
 222:Generated_Source\PSoC5/isr_rbat.c **** *   Address of the ISR in the interrupt vector table.
 223:Generated_Source\PSoC5/isr_rbat.c **** *
 224:Generated_Source\PSoC5/isr_rbat.c **** *******************************************************************************/
 225:Generated_Source\PSoC5/isr_rbat.c **** cyisraddress isr_rbat_GetVector(void)
 226:Generated_Source\PSoC5/isr_rbat.c **** {
  82              		.loc 1 226 0
  83              		.cfi_startproc
  84              		@ args = 0, pretend = 0, frame = 0
  85              		@ frame_needed = 0, uses_anonymous_args = 0
  86              		@ link register save eliminated.
 227:Generated_Source\PSoC5/isr_rbat.c ****     cyisraddress * ramVectorTable;
 228:Generated_Source\PSoC5/isr_rbat.c **** 
 229:Generated_Source\PSoC5/isr_rbat.c ****     ramVectorTable = (cyisraddress *) *CYINT_VECT_TABLE;
  87              		.loc 1 229 0
  88 0000 014B     		ldr	r3, .L8
  89 0002 1B68     		ldr	r3, [r3]
  90              	.LVL2:
 230:Generated_Source\PSoC5/isr_rbat.c **** 
 231:Generated_Source\PSoC5/isr_rbat.c ****     return ramVectorTable[CYINT_IRQ_BASE + (uint32)isr_rbat__INTC_NUMBER];
 232:Generated_Source\PSoC5/isr_rbat.c **** }
  91              		.loc 1 232 0
  92 0004 186C     		ldr	r0, [r3, #64]
  93 0006 7047     		bx	lr
  94              	.L9:
  95              		.align	2
  96              	.L8:
  97 0008 08ED00E0 		.word	-536810232
  98              		.cfi_endproc
  99              	.LFE68:
 100              		.size	isr_rbat_GetVector, .-isr_rbat_GetVector
 101              		.section	.text.isr_rbat_SetPriority,"ax",%progbits
 102              		.align	2
 103              		.global	isr_rbat_SetPriority
 104              		.thumb
 105              		.thumb_func
 106              		.type	isr_rbat_SetPriority, %function
 107              	isr_rbat_SetPriority:
 108              	.LFB69:
 233:Generated_Source\PSoC5/isr_rbat.c **** 
 234:Generated_Source\PSoC5/isr_rbat.c **** 
ARM GAS  C:\Users\pcoud\AppData\Local\Temp\ccEH0Ric.s 			page 7


 235:Generated_Source\PSoC5/isr_rbat.c **** /*******************************************************************************
 236:Generated_Source\PSoC5/isr_rbat.c **** * Function Name: isr_rbat_SetPriority
 237:Generated_Source\PSoC5/isr_rbat.c **** ********************************************************************************
 238:Generated_Source\PSoC5/isr_rbat.c **** *
 239:Generated_Source\PSoC5/isr_rbat.c **** * Summary:
 240:Generated_Source\PSoC5/isr_rbat.c **** *   Sets the Priority of the Interrupt. 
 241:Generated_Source\PSoC5/isr_rbat.c **** *
 242:Generated_Source\PSoC5/isr_rbat.c **** *   Note calling isr_rbat_Start or isr_rbat_StartEx will 
 243:Generated_Source\PSoC5/isr_rbat.c **** *   override any effect this API would have had. This API should only be called
 244:Generated_Source\PSoC5/isr_rbat.c **** *   after isr_rbat_Start or isr_rbat_StartEx has been called. 
 245:Generated_Source\PSoC5/isr_rbat.c **** *   To set the initial priority for the component, use the Design-Wide Resources
 246:Generated_Source\PSoC5/isr_rbat.c **** *   Interrupt Editor.
 247:Generated_Source\PSoC5/isr_rbat.c **** *
 248:Generated_Source\PSoC5/isr_rbat.c **** *   Note This API has no effect on Non-maskable interrupt NMI).
 249:Generated_Source\PSoC5/isr_rbat.c **** *
 250:Generated_Source\PSoC5/isr_rbat.c **** * Parameters:
 251:Generated_Source\PSoC5/isr_rbat.c **** *   priority: Priority of the interrupt, 0 being the highest priority
 252:Generated_Source\PSoC5/isr_rbat.c **** *             PSoC 3 and PSoC 5LP: Priority is from 0 to 7.
 253:Generated_Source\PSoC5/isr_rbat.c **** *             PSoC 4: Priority is from 0 to 3.
 254:Generated_Source\PSoC5/isr_rbat.c **** *
 255:Generated_Source\PSoC5/isr_rbat.c **** * Return:
 256:Generated_Source\PSoC5/isr_rbat.c **** *   None
 257:Generated_Source\PSoC5/isr_rbat.c **** *
 258:Generated_Source\PSoC5/isr_rbat.c **** *******************************************************************************/
 259:Generated_Source\PSoC5/isr_rbat.c **** void isr_rbat_SetPriority(uint8 priority)
 260:Generated_Source\PSoC5/isr_rbat.c **** {
 109              		.loc 1 260 0
 110              		.cfi_startproc
 111              		@ args = 0, pretend = 0, frame = 0
 112              		@ frame_needed = 0, uses_anonymous_args = 0
 113              		@ link register save eliminated.
 114              	.LVL3:
 261:Generated_Source\PSoC5/isr_rbat.c ****     *isr_rbat_INTC_PRIOR = priority << 5;
 115              		.loc 1 261 0
 116 0000 4001     		lsls	r0, r0, #5
 117              	.LVL4:
 118 0002 C0B2     		uxtb	r0, r0
 119 0004 014B     		ldr	r3, .L11
 120 0006 1870     		strb	r0, [r3]
 121 0008 7047     		bx	lr
 122              	.L12:
 123 000a 00BF     		.align	2
 124              	.L11:
 125 000c 00E400E0 		.word	-536812544
 126              		.cfi_endproc
 127              	.LFE69:
 128              		.size	isr_rbat_SetPriority, .-isr_rbat_SetPriority
 129              		.section	.text.isr_rbat_GetPriority,"ax",%progbits
 130              		.align	2
 131              		.global	isr_rbat_GetPriority
 132              		.thumb
 133              		.thumb_func
 134              		.type	isr_rbat_GetPriority, %function
 135              	isr_rbat_GetPriority:
 136              	.LFB70:
 262:Generated_Source\PSoC5/isr_rbat.c **** }
 263:Generated_Source\PSoC5/isr_rbat.c **** 
ARM GAS  C:\Users\pcoud\AppData\Local\Temp\ccEH0Ric.s 			page 8


 264:Generated_Source\PSoC5/isr_rbat.c **** 
 265:Generated_Source\PSoC5/isr_rbat.c **** /*******************************************************************************
 266:Generated_Source\PSoC5/isr_rbat.c **** * Function Name: isr_rbat_GetPriority
 267:Generated_Source\PSoC5/isr_rbat.c **** ********************************************************************************
 268:Generated_Source\PSoC5/isr_rbat.c **** *
 269:Generated_Source\PSoC5/isr_rbat.c **** * Summary:
 270:Generated_Source\PSoC5/isr_rbat.c **** *   Gets the Priority of the Interrupt.
 271:Generated_Source\PSoC5/isr_rbat.c **** *
 272:Generated_Source\PSoC5/isr_rbat.c **** * Parameters:
 273:Generated_Source\PSoC5/isr_rbat.c **** *   None
 274:Generated_Source\PSoC5/isr_rbat.c **** *
 275:Generated_Source\PSoC5/isr_rbat.c **** * Return:
 276:Generated_Source\PSoC5/isr_rbat.c **** *   Priority of the interrupt, 0 being the highest priority
 277:Generated_Source\PSoC5/isr_rbat.c **** *    PSoC 3 and PSoC 5LP: Priority is from 0 to 7.
 278:Generated_Source\PSoC5/isr_rbat.c **** *    PSoC 4: Priority is from 0 to 3.
 279:Generated_Source\PSoC5/isr_rbat.c **** *
 280:Generated_Source\PSoC5/isr_rbat.c **** *******************************************************************************/
 281:Generated_Source\PSoC5/isr_rbat.c **** uint8 isr_rbat_GetPriority(void)
 282:Generated_Source\PSoC5/isr_rbat.c **** {
 137              		.loc 1 282 0
 138              		.cfi_startproc
 139              		@ args = 0, pretend = 0, frame = 0
 140              		@ frame_needed = 0, uses_anonymous_args = 0
 141              		@ link register save eliminated.
 283:Generated_Source\PSoC5/isr_rbat.c ****     uint8 priority;
 284:Generated_Source\PSoC5/isr_rbat.c **** 
 285:Generated_Source\PSoC5/isr_rbat.c **** 
 286:Generated_Source\PSoC5/isr_rbat.c ****     priority = *isr_rbat_INTC_PRIOR >> 5;
 142              		.loc 1 286 0
 143 0000 014B     		ldr	r3, .L14
 144 0002 1878     		ldrb	r0, [r3]	@ zero_extendqisi2
 145              	.LVL5:
 287:Generated_Source\PSoC5/isr_rbat.c **** 
 288:Generated_Source\PSoC5/isr_rbat.c ****     return priority;
 289:Generated_Source\PSoC5/isr_rbat.c **** }
 146              		.loc 1 289 0
 147 0004 4009     		lsrs	r0, r0, #5
 148              	.LVL6:
 149 0006 7047     		bx	lr
 150              	.L15:
 151              		.align	2
 152              	.L14:
 153 0008 00E400E0 		.word	-536812544
 154              		.cfi_endproc
 155              	.LFE70:
 156              		.size	isr_rbat_GetPriority, .-isr_rbat_GetPriority
 157              		.section	.text.isr_rbat_Enable,"ax",%progbits
 158              		.align	2
 159              		.global	isr_rbat_Enable
 160              		.thumb
 161              		.thumb_func
 162              		.type	isr_rbat_Enable, %function
 163              	isr_rbat_Enable:
 164              	.LFB71:
 290:Generated_Source\PSoC5/isr_rbat.c **** 
 291:Generated_Source\PSoC5/isr_rbat.c **** 
 292:Generated_Source\PSoC5/isr_rbat.c **** /*******************************************************************************
ARM GAS  C:\Users\pcoud\AppData\Local\Temp\ccEH0Ric.s 			page 9


 293:Generated_Source\PSoC5/isr_rbat.c **** * Function Name: isr_rbat_Enable
 294:Generated_Source\PSoC5/isr_rbat.c **** ********************************************************************************
 295:Generated_Source\PSoC5/isr_rbat.c **** *
 296:Generated_Source\PSoC5/isr_rbat.c **** * Summary:
 297:Generated_Source\PSoC5/isr_rbat.c **** *   Enables the interrupt to the interrupt controller. Do not call this function
 298:Generated_Source\PSoC5/isr_rbat.c **** *   unless ISR_Start() has been called or the functionality of the ISR_Start() 
 299:Generated_Source\PSoC5/isr_rbat.c **** *   function, which sets the vector and the priority, has been called.
 300:Generated_Source\PSoC5/isr_rbat.c **** *
 301:Generated_Source\PSoC5/isr_rbat.c **** * Parameters:
 302:Generated_Source\PSoC5/isr_rbat.c **** *   None
 303:Generated_Source\PSoC5/isr_rbat.c **** *
 304:Generated_Source\PSoC5/isr_rbat.c **** * Return:
 305:Generated_Source\PSoC5/isr_rbat.c **** *   None
 306:Generated_Source\PSoC5/isr_rbat.c **** *
 307:Generated_Source\PSoC5/isr_rbat.c **** *******************************************************************************/
 308:Generated_Source\PSoC5/isr_rbat.c **** void isr_rbat_Enable(void)
 309:Generated_Source\PSoC5/isr_rbat.c **** {
 165              		.loc 1 309 0
 166              		.cfi_startproc
 167              		@ args = 0, pretend = 0, frame = 0
 168              		@ frame_needed = 0, uses_anonymous_args = 0
 169              		@ link register save eliminated.
 310:Generated_Source\PSoC5/isr_rbat.c ****     /* Enable the general interrupt. */
 311:Generated_Source\PSoC5/isr_rbat.c ****     *isr_rbat_INTC_SET_EN = isr_rbat__INTC_MASK;
 170              		.loc 1 311 0
 171 0000 0122     		movs	r2, #1
 172 0002 014B     		ldr	r3, .L17
 173 0004 1A60     		str	r2, [r3]
 174 0006 7047     		bx	lr
 175              	.L18:
 176              		.align	2
 177              	.L17:
 178 0008 00E100E0 		.word	-536813312
 179              		.cfi_endproc
 180              	.LFE71:
 181              		.size	isr_rbat_Enable, .-isr_rbat_Enable
 182              		.section	.text.isr_rbat_GetState,"ax",%progbits
 183              		.align	2
 184              		.global	isr_rbat_GetState
 185              		.thumb
 186              		.thumb_func
 187              		.type	isr_rbat_GetState, %function
 188              	isr_rbat_GetState:
 189              	.LFB72:
 312:Generated_Source\PSoC5/isr_rbat.c **** }
 313:Generated_Source\PSoC5/isr_rbat.c **** 
 314:Generated_Source\PSoC5/isr_rbat.c **** 
 315:Generated_Source\PSoC5/isr_rbat.c **** /*******************************************************************************
 316:Generated_Source\PSoC5/isr_rbat.c **** * Function Name: isr_rbat_GetState
 317:Generated_Source\PSoC5/isr_rbat.c **** ********************************************************************************
 318:Generated_Source\PSoC5/isr_rbat.c **** *
 319:Generated_Source\PSoC5/isr_rbat.c **** * Summary:
 320:Generated_Source\PSoC5/isr_rbat.c **** *   Gets the state (enabled, disabled) of the Interrupt.
 321:Generated_Source\PSoC5/isr_rbat.c **** *
 322:Generated_Source\PSoC5/isr_rbat.c **** * Parameters:
 323:Generated_Source\PSoC5/isr_rbat.c **** *   None
 324:Generated_Source\PSoC5/isr_rbat.c **** *
ARM GAS  C:\Users\pcoud\AppData\Local\Temp\ccEH0Ric.s 			page 10


 325:Generated_Source\PSoC5/isr_rbat.c **** * Return:
 326:Generated_Source\PSoC5/isr_rbat.c **** *   1 if enabled, 0 if disabled.
 327:Generated_Source\PSoC5/isr_rbat.c **** *
 328:Generated_Source\PSoC5/isr_rbat.c **** *******************************************************************************/
 329:Generated_Source\PSoC5/isr_rbat.c **** uint8 isr_rbat_GetState(void)
 330:Generated_Source\PSoC5/isr_rbat.c **** {
 190              		.loc 1 330 0
 191              		.cfi_startproc
 192              		@ args = 0, pretend = 0, frame = 0
 193              		@ frame_needed = 0, uses_anonymous_args = 0
 194              		@ link register save eliminated.
 331:Generated_Source\PSoC5/isr_rbat.c ****     /* Get the state of the general interrupt. */
 332:Generated_Source\PSoC5/isr_rbat.c ****     return ((*isr_rbat_INTC_SET_EN & (uint32)isr_rbat__INTC_MASK) != 0u) ? 1u:0u;
 195              		.loc 1 332 0
 196 0000 024B     		ldr	r3, .L20
 197 0002 1868     		ldr	r0, [r3]
 333:Generated_Source\PSoC5/isr_rbat.c **** }
 198              		.loc 1 333 0
 199 0004 00F00100 		and	r0, r0, #1
 200 0008 7047     		bx	lr
 201              	.L21:
 202 000a 00BF     		.align	2
 203              	.L20:
 204 000c 00E100E0 		.word	-536813312
 205              		.cfi_endproc
 206              	.LFE72:
 207              		.size	isr_rbat_GetState, .-isr_rbat_GetState
 208              		.section	.text.isr_rbat_Disable,"ax",%progbits
 209              		.align	2
 210              		.global	isr_rbat_Disable
 211              		.thumb
 212              		.thumb_func
 213              		.type	isr_rbat_Disable, %function
 214              	isr_rbat_Disable:
 215              	.LFB73:
 334:Generated_Source\PSoC5/isr_rbat.c **** 
 335:Generated_Source\PSoC5/isr_rbat.c **** 
 336:Generated_Source\PSoC5/isr_rbat.c **** /*******************************************************************************
 337:Generated_Source\PSoC5/isr_rbat.c **** * Function Name: isr_rbat_Disable
 338:Generated_Source\PSoC5/isr_rbat.c **** ********************************************************************************
 339:Generated_Source\PSoC5/isr_rbat.c **** *
 340:Generated_Source\PSoC5/isr_rbat.c **** * Summary:
 341:Generated_Source\PSoC5/isr_rbat.c **** *   Disables the Interrupt in the interrupt controller.
 342:Generated_Source\PSoC5/isr_rbat.c **** *
 343:Generated_Source\PSoC5/isr_rbat.c **** * Parameters:
 344:Generated_Source\PSoC5/isr_rbat.c **** *   None
 345:Generated_Source\PSoC5/isr_rbat.c **** *
 346:Generated_Source\PSoC5/isr_rbat.c **** * Return:
 347:Generated_Source\PSoC5/isr_rbat.c **** *   None
 348:Generated_Source\PSoC5/isr_rbat.c **** *
 349:Generated_Source\PSoC5/isr_rbat.c **** *******************************************************************************/
 350:Generated_Source\PSoC5/isr_rbat.c **** void isr_rbat_Disable(void)
 351:Generated_Source\PSoC5/isr_rbat.c **** {
 216              		.loc 1 351 0
 217              		.cfi_startproc
 218              		@ args = 0, pretend = 0, frame = 0
 219              		@ frame_needed = 0, uses_anonymous_args = 0
ARM GAS  C:\Users\pcoud\AppData\Local\Temp\ccEH0Ric.s 			page 11


 220              		@ link register save eliminated.
 352:Generated_Source\PSoC5/isr_rbat.c ****     /* Disable the general interrupt. */
 353:Generated_Source\PSoC5/isr_rbat.c ****     *isr_rbat_INTC_CLR_EN = isr_rbat__INTC_MASK;
 221              		.loc 1 353 0
 222 0000 0122     		movs	r2, #1
 223 0002 014B     		ldr	r3, .L23
 224 0004 1A60     		str	r2, [r3]
 225 0006 7047     		bx	lr
 226              	.L24:
 227              		.align	2
 228              	.L23:
 229 0008 80E100E0 		.word	-536813184
 230              		.cfi_endproc
 231              	.LFE73:
 232              		.size	isr_rbat_Disable, .-isr_rbat_Disable
 233              		.section	.text.isr_rbat_Start,"ax",%progbits
 234              		.align	2
 235              		.global	isr_rbat_Start
 236              		.thumb
 237              		.thumb_func
 238              		.type	isr_rbat_Start, %function
 239              	isr_rbat_Start:
 240              	.LFB63:
  63:Generated_Source\PSoC5/isr_rbat.c ****     /* For all we know the interrupt is active. */
 241              		.loc 1 63 0
 242              		.cfi_startproc
 243              		@ args = 0, pretend = 0, frame = 0
 244              		@ frame_needed = 0, uses_anonymous_args = 0
 245 0000 08B5     		push	{r3, lr}
 246              		.cfi_def_cfa_offset 8
 247              		.cfi_offset 3, -8
 248              		.cfi_offset 14, -4
  65:Generated_Source\PSoC5/isr_rbat.c **** 
 249              		.loc 1 65 0
 250 0002 FFF7FEFF 		bl	isr_rbat_Disable
 251              	.LVL7:
  68:Generated_Source\PSoC5/isr_rbat.c **** 
 252              		.loc 1 68 0
 253 0006 0448     		ldr	r0, .L27
 254 0008 FFF7FEFF 		bl	isr_rbat_SetVector
 255              	.LVL8:
  71:Generated_Source\PSoC5/isr_rbat.c **** 
 256              		.loc 1 71 0
 257 000c 0720     		movs	r0, #7
 258 000e FFF7FEFF 		bl	isr_rbat_SetPriority
 259              	.LVL9:
  74:Generated_Source\PSoC5/isr_rbat.c **** }
 260              		.loc 1 74 0
 261 0012 FFF7FEFF 		bl	isr_rbat_Enable
 262              	.LVL10:
 263 0016 08BD     		pop	{r3, pc}
 264              	.L28:
 265              		.align	2
 266              	.L27:
 267 0018 00000000 		.word	isr_rbat_Interrupt
 268              		.cfi_endproc
 269              	.LFE63:
ARM GAS  C:\Users\pcoud\AppData\Local\Temp\ccEH0Ric.s 			page 12


 270              		.size	isr_rbat_Start, .-isr_rbat_Start
 271              		.section	.text.isr_rbat_StartEx,"ax",%progbits
 272              		.align	2
 273              		.global	isr_rbat_StartEx
 274              		.thumb
 275              		.thumb_func
 276              		.type	isr_rbat_StartEx, %function
 277              	isr_rbat_StartEx:
 278              	.LFB64:
 106:Generated_Source\PSoC5/isr_rbat.c ****     /* For all we know the interrupt is active. */
 279              		.loc 1 106 0
 280              		.cfi_startproc
 281              		@ args = 0, pretend = 0, frame = 0
 282              		@ frame_needed = 0, uses_anonymous_args = 0
 283              	.LVL11:
 284 0000 10B5     		push	{r4, lr}
 285              		.cfi_def_cfa_offset 8
 286              		.cfi_offset 4, -8
 287              		.cfi_offset 14, -4
 288 0002 0446     		mov	r4, r0
 108:Generated_Source\PSoC5/isr_rbat.c **** 
 289              		.loc 1 108 0
 290 0004 FFF7FEFF 		bl	isr_rbat_Disable
 291              	.LVL12:
 111:Generated_Source\PSoC5/isr_rbat.c **** 
 292              		.loc 1 111 0
 293 0008 2046     		mov	r0, r4
 294 000a FFF7FEFF 		bl	isr_rbat_SetVector
 295              	.LVL13:
 114:Generated_Source\PSoC5/isr_rbat.c **** 
 296              		.loc 1 114 0
 297 000e 0720     		movs	r0, #7
 298 0010 FFF7FEFF 		bl	isr_rbat_SetPriority
 299              	.LVL14:
 117:Generated_Source\PSoC5/isr_rbat.c **** }
 300              		.loc 1 117 0
 301 0014 FFF7FEFF 		bl	isr_rbat_Enable
 302              	.LVL15:
 303 0018 10BD     		pop	{r4, pc}
 304              		.cfi_endproc
 305              	.LFE64:
 306              		.size	isr_rbat_StartEx, .-isr_rbat_StartEx
 307 001a 00BF     		.section	.text.isr_rbat_Stop,"ax",%progbits
 308              		.align	2
 309              		.global	isr_rbat_Stop
 310              		.thumb
 311              		.thumb_func
 312              		.type	isr_rbat_Stop, %function
 313              	isr_rbat_Stop:
 314              	.LFB65:
 136:Generated_Source\PSoC5/isr_rbat.c ****     /* Disable this interrupt. */
 315              		.loc 1 136 0
 316              		.cfi_startproc
 317              		@ args = 0, pretend = 0, frame = 0
 318              		@ frame_needed = 0, uses_anonymous_args = 0
 319 0000 08B5     		push	{r3, lr}
 320              		.cfi_def_cfa_offset 8
ARM GAS  C:\Users\pcoud\AppData\Local\Temp\ccEH0Ric.s 			page 13


 321              		.cfi_offset 3, -8
 322              		.cfi_offset 14, -4
 138:Generated_Source\PSoC5/isr_rbat.c **** 
 323              		.loc 1 138 0
 324 0002 FFF7FEFF 		bl	isr_rbat_Disable
 325              	.LVL16:
 141:Generated_Source\PSoC5/isr_rbat.c **** }
 326              		.loc 1 141 0
 327 0006 0248     		ldr	r0, .L33
 328 0008 FFF7FEFF 		bl	isr_rbat_SetVector
 329              	.LVL17:
 330 000c 08BD     		pop	{r3, pc}
 331              	.L34:
 332 000e 00BF     		.align	2
 333              	.L33:
 334 0010 00000000 		.word	IntDefaultHandler
 335              		.cfi_endproc
 336              	.LFE65:
 337              		.size	isr_rbat_Stop, .-isr_rbat_Stop
 338              		.section	.text.isr_rbat_SetPending,"ax",%progbits
 339              		.align	2
 340              		.global	isr_rbat_SetPending
 341              		.thumb
 342              		.thumb_func
 343              		.type	isr_rbat_SetPending, %function
 344              	isr_rbat_SetPending:
 345              	.LFB74:
 354:Generated_Source\PSoC5/isr_rbat.c **** }
 355:Generated_Source\PSoC5/isr_rbat.c **** 
 356:Generated_Source\PSoC5/isr_rbat.c **** 
 357:Generated_Source\PSoC5/isr_rbat.c **** /*******************************************************************************
 358:Generated_Source\PSoC5/isr_rbat.c **** * Function Name: isr_rbat_SetPending
 359:Generated_Source\PSoC5/isr_rbat.c **** ********************************************************************************
 360:Generated_Source\PSoC5/isr_rbat.c **** *
 361:Generated_Source\PSoC5/isr_rbat.c **** * Summary:
 362:Generated_Source\PSoC5/isr_rbat.c **** *   Causes the Interrupt to enter the pending state, a software method of
 363:Generated_Source\PSoC5/isr_rbat.c **** *   generating the interrupt.
 364:Generated_Source\PSoC5/isr_rbat.c **** *
 365:Generated_Source\PSoC5/isr_rbat.c **** * Parameters:
 366:Generated_Source\PSoC5/isr_rbat.c **** *   None
 367:Generated_Source\PSoC5/isr_rbat.c **** *
 368:Generated_Source\PSoC5/isr_rbat.c **** * Return:
 369:Generated_Source\PSoC5/isr_rbat.c **** *   None
 370:Generated_Source\PSoC5/isr_rbat.c **** *
 371:Generated_Source\PSoC5/isr_rbat.c **** * Side Effects:
 372:Generated_Source\PSoC5/isr_rbat.c **** *   If interrupts are enabled and the interrupt is set up properly, the ISR is
 373:Generated_Source\PSoC5/isr_rbat.c **** *   entered (depending on the priority of this interrupt and other pending 
 374:Generated_Source\PSoC5/isr_rbat.c **** *   interrupts).
 375:Generated_Source\PSoC5/isr_rbat.c **** *
 376:Generated_Source\PSoC5/isr_rbat.c **** *******************************************************************************/
 377:Generated_Source\PSoC5/isr_rbat.c **** void isr_rbat_SetPending(void)
 378:Generated_Source\PSoC5/isr_rbat.c **** {
 346              		.loc 1 378 0
 347              		.cfi_startproc
 348              		@ args = 0, pretend = 0, frame = 0
 349              		@ frame_needed = 0, uses_anonymous_args = 0
 350              		@ link register save eliminated.
ARM GAS  C:\Users\pcoud\AppData\Local\Temp\ccEH0Ric.s 			page 14


 379:Generated_Source\PSoC5/isr_rbat.c ****     *isr_rbat_INTC_SET_PD = isr_rbat__INTC_MASK;
 351              		.loc 1 379 0
 352 0000 0122     		movs	r2, #1
 353 0002 014B     		ldr	r3, .L36
 354 0004 1A60     		str	r2, [r3]
 355 0006 7047     		bx	lr
 356              	.L37:
 357              		.align	2
 358              	.L36:
 359 0008 00E200E0 		.word	-536813056
 360              		.cfi_endproc
 361              	.LFE74:
 362              		.size	isr_rbat_SetPending, .-isr_rbat_SetPending
 363              		.section	.text.isr_rbat_ClearPending,"ax",%progbits
 364              		.align	2
 365              		.global	isr_rbat_ClearPending
 366              		.thumb
 367              		.thumb_func
 368              		.type	isr_rbat_ClearPending, %function
 369              	isr_rbat_ClearPending:
 370              	.LFB75:
 380:Generated_Source\PSoC5/isr_rbat.c **** }
 381:Generated_Source\PSoC5/isr_rbat.c **** 
 382:Generated_Source\PSoC5/isr_rbat.c **** 
 383:Generated_Source\PSoC5/isr_rbat.c **** /*******************************************************************************
 384:Generated_Source\PSoC5/isr_rbat.c **** * Function Name: isr_rbat_ClearPending
 385:Generated_Source\PSoC5/isr_rbat.c **** ********************************************************************************
 386:Generated_Source\PSoC5/isr_rbat.c **** *
 387:Generated_Source\PSoC5/isr_rbat.c **** * Summary:
 388:Generated_Source\PSoC5/isr_rbat.c **** *   Clears a pending interrupt in the interrupt controller.
 389:Generated_Source\PSoC5/isr_rbat.c **** *
 390:Generated_Source\PSoC5/isr_rbat.c **** *   Note Some interrupt sources are clear-on-read and require the block 
 391:Generated_Source\PSoC5/isr_rbat.c **** *   interrupt/status register to be read/cleared with the appropriate block API 
 392:Generated_Source\PSoC5/isr_rbat.c **** *   (GPIO, UART, and so on). Otherwise the ISR will continue to remain in 
 393:Generated_Source\PSoC5/isr_rbat.c **** *   pending state even though the interrupt itself is cleared using this API.
 394:Generated_Source\PSoC5/isr_rbat.c **** *
 395:Generated_Source\PSoC5/isr_rbat.c **** * Parameters:
 396:Generated_Source\PSoC5/isr_rbat.c **** *   None
 397:Generated_Source\PSoC5/isr_rbat.c **** *
 398:Generated_Source\PSoC5/isr_rbat.c **** * Return:
 399:Generated_Source\PSoC5/isr_rbat.c **** *   None
 400:Generated_Source\PSoC5/isr_rbat.c **** *
 401:Generated_Source\PSoC5/isr_rbat.c **** *******************************************************************************/
 402:Generated_Source\PSoC5/isr_rbat.c **** void isr_rbat_ClearPending(void)
 403:Generated_Source\PSoC5/isr_rbat.c **** {
 371              		.loc 1 403 0
 372              		.cfi_startproc
 373              		@ args = 0, pretend = 0, frame = 0
 374              		@ frame_needed = 0, uses_anonymous_args = 0
 375              		@ link register save eliminated.
 404:Generated_Source\PSoC5/isr_rbat.c ****     *isr_rbat_INTC_CLR_PD = isr_rbat__INTC_MASK;
 376              		.loc 1 404 0
 377 0000 0122     		movs	r2, #1
 378 0002 014B     		ldr	r3, .L39
 379 0004 1A60     		str	r2, [r3]
 380 0006 7047     		bx	lr
 381              	.L40:
ARM GAS  C:\Users\pcoud\AppData\Local\Temp\ccEH0Ric.s 			page 15


 382              		.align	2
 383              	.L39:
 384 0008 80E200E0 		.word	-536812928
 385              		.cfi_endproc
 386              	.LFE75:
 387              		.size	isr_rbat_ClearPending, .-isr_rbat_ClearPending
 388              		.text
 389              	.Letext0:
 390              		.file 2 "c:\\program files (x86)\\cypress\\psoc creator\\4.1\\psoc creator\\import\\gnu\\arm\\5.4.
 391              		.file 3 "c:\\program files (x86)\\cypress\\psoc creator\\4.1\\psoc creator\\import\\gnu\\arm\\5.4.
 392              		.file 4 "Generated_Source\\PSoC5/cytypes.h"
 393              		.file 5 "Generated_Source\\PSoC5/core_cm3.h"