ARM GAS  C:\Users\pcoud\AppData\Local\Temp\ccFdXS9d.s 			page 1


   1              		.syntax unified
   2              		.cpu cortex-m3
   3              		.fpu softvfp
   4              		.eabi_attribute 20, 1
   5              		.eabi_attribute 21, 1
   6              		.eabi_attribute 23, 3
   7              		.eabi_attribute 24, 1
   8              		.eabi_attribute 25, 1
   9              		.eabi_attribute 26, 1
  10              		.eabi_attribute 30, 1
  11              		.eabi_attribute 34, 1
  12              		.eabi_attribute 18, 4
  13              		.thumb
  14              		.syntax unified
  15              		.file	"main.c"
  16              		.text
  17              	.Ltext0:
  18              		.cfi_sections	.debug_frame
  19              		.section	.text.lecture_reserv,"ax",%progbits
  20              		.align	2
  21              		.global	lecture_reserv
  22              		.thumb
  23              		.thumb_func
  24              		.type	lecture_reserv, %function
  25              	lecture_reserv:
  26              	.LFB64:
  27              		.file 1 "main.c"
   1:main.c        **** /* ========================================
   2:main.c        ****  *
   3:main.c        ****  * Copyright Couderc Pierre, 2019
   4:main.c        ****  * All Rights Reserved
   5:main.c        ****  * UNPUBLISHED, LICENSED SOFTWARE.
   6:main.c        ****  *
   7:main.c        ****  * CONFIDENTIAL AND PROPRIETARY INFORMATION
   8:main.c        ****  * WHICH IS THE PROPERTY OF your company.
   9:main.c        ****  *
  10:main.c        ****  * ========================================
  11:main.c        **** */
  12:main.c        **** #include "project.h"
  13:main.c        **** #include "string.h"
  14:main.c        **** #include "stdio.h"    //Pour Sprintf
  15:main.c        **** 
  16:main.c        **** uint16 batverte, batrouge,panneau,disjon;
  17:main.c        **** char strbat[2],strdis[2],strpan[2];
  18:main.c        **** 
  19:main.c        **** //char strbatv[5],strbatr[5];
  20:main.c        **** 
  21:main.c        **** char niv_reserv[3]; // Niveau d'eau du réservoir 
  22:main.c        **** char message[35];   // Pour la réception de la réponse SIGFOX
  23:main.c        **** char begin[15],resp[35];
  24:main.c        **** uint8 cptcar;       // Compteur caractère reçu de réponse SIGFOX
  25:main.c        **** uint8 phase,j;        // Phase réception Sigfox
  26:main.c        **** 
  27:main.c        ****   
  28:main.c        **** /********************************************START lecture niveau d'eau****************************
  29:main.c        **** void lecture_reserv(){
  28              		.loc 1 29 0
ARM GAS  C:\Users\pcoud\AppData\Local\Temp\ccFdXS9d.s 			page 2


  29              		.cfi_startproc
  30              		@ args = 0, pretend = 0, frame = 0
  31              		@ frame_needed = 0, uses_anonymous_args = 0
  32 0000 10B5     		push	{r4, lr}
  33              		.cfi_def_cfa_offset 8
  34              		.cfi_offset 4, -8
  35              		.cfi_offset 14, -4
  30:main.c        ****     uint8 niv;
  31:main.c        ****     niv=niveau_Read(); 
  36              		.loc 1 31 0
  37 0002 FFF7FEFF 		bl	niveau_Read
  38              	.LVL0:
  32:main.c        ****     
  33:main.c        ****     if ( niv==0xFF) strcpy (niv_reserv,"00");
  39              		.loc 1 33 0
  40 0006 FF28     		cmp	r0, #255
  41 0008 05D1     		bne	.L2
  42              		.loc 1 33 0 is_stmt 0 discriminator 1
  43 000a 2E4B     		ldr	r3, .L13
  44 000c 2E4A     		ldr	r2, .L13+4
  45 000e 1188     		ldrh	r1, [r2]	@ unaligned
  46 0010 9278     		ldrb	r2, [r2, #2]	@ zero_extendqisi2
  47 0012 1980     		strh	r1, [r3]	@ unaligned
  48 0014 9A70     		strb	r2, [r3, #2]
  49              	.L2:
  34:main.c        ****     if ( niv==0xFE) strcpy (niv_reserv,"02");
  50              		.loc 1 34 0 is_stmt 1
  51 0016 FE28     		cmp	r0, #254
  52 0018 05D1     		bne	.L3
  53              		.loc 1 34 0 is_stmt 0 discriminator 1
  54 001a 2A4B     		ldr	r3, .L13
  55 001c 2B4A     		ldr	r2, .L13+8
  56 001e 1188     		ldrh	r1, [r2]	@ unaligned
  57 0020 9278     		ldrb	r2, [r2, #2]	@ zero_extendqisi2
  58 0022 1980     		strh	r1, [r3]	@ unaligned
  59 0024 9A70     		strb	r2, [r3, #2]
  60              	.L3:
  35:main.c        ****     if ( niv==0xFC) strcpy (niv_reserv,"04");
  61              		.loc 1 35 0 is_stmt 1
  62 0026 FC28     		cmp	r0, #252
  63 0028 05D1     		bne	.L4
  64              		.loc 1 35 0 is_stmt 0 discriminator 1
  65 002a 264B     		ldr	r3, .L13
  66 002c 284A     		ldr	r2, .L13+12
  67 002e 1188     		ldrh	r1, [r2]	@ unaligned
  68 0030 9278     		ldrb	r2, [r2, #2]	@ zero_extendqisi2
  69 0032 1980     		strh	r1, [r3]	@ unaligned
  70 0034 9A70     		strb	r2, [r3, #2]
  71              	.L4:
  36:main.c        ****     if ( niv==0xF8) strcpy (niv_reserv,"06");
  72              		.loc 1 36 0 is_stmt 1
  73 0036 F828     		cmp	r0, #248
  74 0038 05D1     		bne	.L5
  75              		.loc 1 36 0 is_stmt 0 discriminator 1
  76 003a 224B     		ldr	r3, .L13
  77 003c 254A     		ldr	r2, .L13+16
  78 003e 1188     		ldrh	r1, [r2]	@ unaligned
ARM GAS  C:\Users\pcoud\AppData\Local\Temp\ccFdXS9d.s 			page 3


  79 0040 9278     		ldrb	r2, [r2, #2]	@ zero_extendqisi2
  80 0042 1980     		strh	r1, [r3]	@ unaligned
  81 0044 9A70     		strb	r2, [r3, #2]
  82              	.L5:
  37:main.c        ****     if ( niv==0xF0) strcpy (niv_reserv,"08");
  83              		.loc 1 37 0 is_stmt 1
  84 0046 F028     		cmp	r0, #240
  85 0048 05D1     		bne	.L6
  86              		.loc 1 37 0 is_stmt 0 discriminator 1
  87 004a 1E4B     		ldr	r3, .L13
  88 004c 224A     		ldr	r2, .L13+20
  89 004e 1188     		ldrh	r1, [r2]	@ unaligned
  90 0050 9278     		ldrb	r2, [r2, #2]	@ zero_extendqisi2
  91 0052 1980     		strh	r1, [r3]	@ unaligned
  92 0054 9A70     		strb	r2, [r3, #2]
  93              	.L6:
  38:main.c        ****     if ( niv==0xE0) strcpy (niv_reserv,"10");
  94              		.loc 1 38 0 is_stmt 1
  95 0056 E028     		cmp	r0, #224
  96 0058 05D1     		bne	.L7
  97              		.loc 1 38 0 is_stmt 0 discriminator 1
  98 005a 1A4B     		ldr	r3, .L13
  99 005c 1F4A     		ldr	r2, .L13+24
 100 005e 1188     		ldrh	r1, [r2]	@ unaligned
 101 0060 9278     		ldrb	r2, [r2, #2]	@ zero_extendqisi2
 102 0062 1980     		strh	r1, [r3]	@ unaligned
 103 0064 9A70     		strb	r2, [r3, #2]
 104              	.L7:
  39:main.c        ****     if ( niv==0xC0) strcpy (niv_reserv,"12");
 105              		.loc 1 39 0 is_stmt 1
 106 0066 C028     		cmp	r0, #192
 107 0068 05D1     		bne	.L8
 108              		.loc 1 39 0 is_stmt 0 discriminator 1
 109 006a 164B     		ldr	r3, .L13
 110 006c 1C4A     		ldr	r2, .L13+28
 111 006e 1188     		ldrh	r1, [r2]	@ unaligned
 112 0070 9278     		ldrb	r2, [r2, #2]	@ zero_extendqisi2
 113 0072 1980     		strh	r1, [r3]	@ unaligned
 114 0074 9A70     		strb	r2, [r3, #2]
 115              	.L8:
  40:main.c        ****     if ( niv==0x80) strcpy (niv_reserv,"14");
 116              		.loc 1 40 0 is_stmt 1
 117 0076 8028     		cmp	r0, #128
 118 0078 05D1     		bne	.L9
 119              		.loc 1 40 0 is_stmt 0 discriminator 1
 120 007a 124B     		ldr	r3, .L13
 121 007c 194A     		ldr	r2, .L13+32
 122 007e 1188     		ldrh	r1, [r2]	@ unaligned
 123 0080 9278     		ldrb	r2, [r2, #2]	@ zero_extendqisi2
 124 0082 1980     		strh	r1, [r3]	@ unaligned
 125 0084 9A70     		strb	r2, [r3, #2]
 126              	.L9:
  41:main.c        ****     if ( niv==0x00) strcpy (niv_reserv,"16"); 
 127              		.loc 1 41 0 is_stmt 1
 128 0086 28B9     		cbnz	r0, .L10
 129              		.loc 1 41 0 is_stmt 0 discriminator 1
 130 0088 0E4B     		ldr	r3, .L13
ARM GAS  C:\Users\pcoud\AppData\Local\Temp\ccFdXS9d.s 			page 4


 131 008a 174A     		ldr	r2, .L13+36
 132 008c 1188     		ldrh	r1, [r2]	@ unaligned
 133 008e 9278     		ldrb	r2, [r2, #2]	@ zero_extendqisi2
 134 0090 1980     		strh	r1, [r3]	@ unaligned
 135 0092 9A70     		strb	r2, [r3, #2]
 136              	.L10:
  42:main.c        ****     if((niv!=0xFF)&&(niv!=0xFE)&&(niv!=0xFC)&&(niv!=0xF8)&&(niv!=0xF0)&&(niv!=0xE0)&&(niv!=0xC0)&&(
 137              		.loc 1 42 0 is_stmt 1
 138 0094 831C     		adds	r3, r0, #2
 139 0096 DBB2     		uxtb	r3, r3
 140 0098 012B     		cmp	r3, #1
 141 009a 12D9     		bls	.L1
 142              		.loc 1 42 0 is_stmt 0 discriminator 1
 143 009c FC28     		cmp	r0, #252
 144 009e 10D0     		beq	.L1
 145              		.loc 1 42 0 discriminator 2
 146 00a0 F828     		cmp	r0, #248
 147 00a2 0ED0     		beq	.L1
 148              		.loc 1 42 0 discriminator 3
 149 00a4 F028     		cmp	r0, #240
 150 00a6 0CD0     		beq	.L1
 151              		.loc 1 42 0 discriminator 4
 152 00a8 E028     		cmp	r0, #224
 153 00aa 0AD0     		beq	.L1
 154              		.loc 1 42 0 discriminator 5
 155 00ac C028     		cmp	r0, #192
 156 00ae 08D0     		beq	.L1
 157              		.loc 1 42 0 discriminator 6
 158 00b0 8028     		cmp	r0, #128
 159 00b2 06D0     		beq	.L1
 160              		.loc 1 42 0 discriminator 7
 161 00b4 28B1     		cbz	r0, .L1
 162              		.loc 1 42 0 discriminator 8
 163 00b6 034B     		ldr	r3, .L13
 164 00b8 0C4A     		ldr	r2, .L13+40
 165 00ba 1188     		ldrh	r1, [r2]	@ unaligned
 166 00bc 9278     		ldrb	r2, [r2, #2]	@ zero_extendqisi2
 167 00be 1980     		strh	r1, [r3]	@ unaligned
 168 00c0 9A70     		strb	r2, [r3, #2]
 169              	.L1:
 170 00c2 10BD     		pop	{r4, pc}
 171              	.L14:
 172              		.align	2
 173              	.L13:
 174 00c4 00000000 		.word	niv_reserv
 175 00c8 00000000 		.word	.LC0
 176 00cc 04000000 		.word	.LC1
 177 00d0 08000000 		.word	.LC2
 178 00d4 0C000000 		.word	.LC3
 179 00d8 10000000 		.word	.LC4
 180 00dc 14000000 		.word	.LC5
 181 00e0 18000000 		.word	.LC6
 182 00e4 1C000000 		.word	.LC7
 183 00e8 20000000 		.word	.LC8
 184 00ec 24000000 		.word	.LC9
 185              		.cfi_endproc
 186              	.LFE64:
ARM GAS  C:\Users\pcoud\AppData\Local\Temp\ccFdXS9d.s 			page 5


 187              		.size	lecture_reserv, .-lecture_reserv
 188              		.section	.text.lecture_leds,"ax",%progbits
 189              		.align	2
 190              		.global	lecture_leds
 191              		.thumb
 192              		.thumb_func
 193              		.type	lecture_leds, %function
 194              	lecture_leds:
 195              	.LFB65:
  43:main.c        **** }
  44:main.c        **** /********************************************END lecture niveau d'eau******************************
  45:main.c        **** 
  46:main.c        **** 
  47:main.c        **** /********************************************START lecture LEDS************************************
  48:main.c        **** void lecture_leds(){ 
 196              		.loc 1 48 0 is_stmt 1
 197              		.cfi_startproc
 198              		@ args = 0, pretend = 0, frame = 0
 199              		@ frame_needed = 0, uses_anonymous_args = 0
 200 0000 10B5     		push	{r4, lr}
 201              		.cfi_def_cfa_offset 8
 202              		.cfi_offset 4, -8
 203              		.cfi_offset 14, -4
  49:main.c        **** /*<---LECTURE ETATS DES LEDS--->*/
  50:main.c        ****     batverte=0;
 204              		.loc 1 50 0
 205 0002 0023     		movs	r3, #0
 206 0004 434A     		ldr	r2, .L27
 207 0006 1380     		strh	r3, [r2]	@ movhi
  51:main.c        ****     batrouge=0;
 208              		.loc 1 51 0
 209 0008 434A     		ldr	r2, .L27+4
 210 000a 1380     		strh	r3, [r2]	@ movhi
  52:main.c        ****     panneau=0;
 211              		.loc 1 52 0
 212 000c 434A     		ldr	r2, .L27+8
 213 000e 1380     		strh	r3, [r2]	@ movhi
  53:main.c        ****     disjon=0;
 214              		.loc 1 53 0
 215 0010 434C     		ldr	r4, .L27+12
 216 0012 2380     		strh	r3, [r4]	@ movhi
  54:main.c        ****     isr_rbat_Start();
 217              		.loc 1 54 0
 218 0014 FFF7FEFF 		bl	isr_rbat_Start
 219              	.LVL1:
  55:main.c        ****     isr_vbat_Start();
 220              		.loc 1 55 0
 221 0018 FFF7FEFF 		bl	isr_vbat_Start
 222              	.LVL2:
  56:main.c        ****     isr_rch_Start();
 223              		.loc 1 56 0
 224 001c FFF7FEFF 		bl	isr_rch_Start
 225              	.LVL3:
  57:main.c        ****     isr_vpan_Start();
 226              		.loc 1 57 0
 227 0020 FFF7FEFF 		bl	isr_vpan_Start
 228              	.LVL4:
ARM GAS  C:\Users\pcoud\AppData\Local\Temp\ccFdXS9d.s 			page 6


  58:main.c        ****     CyDelay(1000);
 229              		.loc 1 58 0
 230 0024 4FF47A70 		mov	r0, #1000
 231 0028 FFF7FEFF 		bl	CyDelay
 232              	.LVL5:
  59:main.c        ****     isr_vbat_Stop();
 233              		.loc 1 59 0
 234 002c FFF7FEFF 		bl	isr_vbat_Stop
 235              	.LVL6:
  60:main.c        ****     isr_rbat_Stop();
 236              		.loc 1 60 0
 237 0030 FFF7FEFF 		bl	isr_rbat_Stop
 238              	.LVL7:
  61:main.c        ****     isr_rch_Stop();
 239              		.loc 1 61 0
 240 0034 FFF7FEFF 		bl	isr_rch_Stop
 241              	.LVL8:
  62:main.c        ****     isr_vpan_Stop();
 242              		.loc 1 62 0
 243 0038 FFF7FEFF 		bl	isr_vpan_Stop
 244              	.LVL9:
  63:main.c        ****     //var=compteur;
  64:main.c        **** /*<---TEST LED ROUGE DISJONCTEUR--->*/
  65:main.c        ****     if(disjon>40  && disjon<60){    //Rouge fixe
 245              		.loc 1 65 0
 246 003c 2388     		ldrh	r3, [r4]
 247 003e A3F12902 		sub	r2, r3, #41
 248 0042 92B2     		uxth	r2, r2
 249 0044 122A     		cmp	r2, #18
 250 0046 03D8     		bhi	.L16
  66:main.c        ****         strcpy (strdis,"0");
 251              		.loc 1 66 0
 252 0048 364A     		ldr	r2, .L27+16
 253 004a 1188     		ldrh	r1, [r2]	@ unaligned
 254 004c 364A     		ldr	r2, .L27+20
 255 004e 1180     		strh	r1, [r2]	@ unaligned
 256              	.L16:
  67:main.c        ****     }
  68:main.c        ****     if(disjon>10  && disjon<30){    //Rouge clignote
 257              		.loc 1 68 0
 258 0050 A3F10B02 		sub	r2, r3, #11
 259 0054 92B2     		uxth	r2, r2
 260 0056 122A     		cmp	r2, #18
 261 0058 03D8     		bhi	.L17
  69:main.c        ****         strcpy (strdis,"2");
 262              		.loc 1 69 0
 263 005a 344A     		ldr	r2, .L27+24
 264 005c 1188     		ldrh	r1, [r2]	@ unaligned
 265 005e 324A     		ldr	r2, .L27+20
 266 0060 1180     		strh	r1, [r2]	@ unaligned
 267              	.L17:
  70:main.c        ****     }
  71:main.c        ****     if(disjon<10){                  //Rouge éteint
 268              		.loc 1 71 0
 269 0062 092B     		cmp	r3, #9
 270 0064 03D8     		bhi	.L18
  72:main.c        ****         strcpy (strdis,"3"); 
ARM GAS  C:\Users\pcoud\AppData\Local\Temp\ccFdXS9d.s 			page 7


 271              		.loc 1 72 0
 272 0066 324B     		ldr	r3, .L27+28
 273 0068 1A88     		ldrh	r2, [r3]	@ unaligned
 274 006a 2F4B     		ldr	r3, .L27+20
 275 006c 1A80     		strh	r2, [r3]	@ unaligned
 276              	.L18:
  73:main.c        ****     }    
  74:main.c        **** /*<---TEST LED BICOLORE VERT/ROUGE BATTERIE--->*/
  75:main.c        ****     strcpy (strbat,"0");           //Erreur
 277              		.loc 1 75 0
 278 006e 2D4B     		ldr	r3, .L27+16
 279 0070 1A88     		ldrh	r2, [r3]	@ unaligned
 280 0072 304B     		ldr	r3, .L27+32
 281 0074 1A80     		strh	r2, [r3]	@ unaligned
  76:main.c        ****     if(batverte>40  && batverte<60  && batrouge<10){                //Verte fixe
 282              		.loc 1 76 0
 283 0076 274B     		ldr	r3, .L27
 284 0078 1988     		ldrh	r1, [r3]
 285 007a A1F12903 		sub	r3, r1, #41
 286 007e 9BB2     		uxth	r3, r3
 287 0080 122B     		cmp	r3, #18
 288 0082 07D8     		bhi	.L19
 289              		.loc 1 76 0 is_stmt 0 discriminator 1
 290 0084 244A     		ldr	r2, .L27+4
 291 0086 1288     		ldrh	r2, [r2]
 292 0088 092A     		cmp	r2, #9
 293 008a 03D8     		bhi	.L19
  77:main.c        ****         strcpy (strbat,"1");
 294              		.loc 1 77 0 is_stmt 1
 295 008c 2A4A     		ldr	r2, .L27+36
 296 008e 1088     		ldrh	r0, [r2]	@ unaligned
 297 0090 284A     		ldr	r2, .L27+32
 298 0092 1080     		strh	r0, [r2]	@ unaligned
 299              	.L19:
  78:main.c        ****     }
  79:main.c        ****     if(batverte>10  && batverte<30 && batrouge<10){                 //Verte clignote
 300              		.loc 1 79 0
 301 0094 A1F10B02 		sub	r2, r1, #11
 302 0098 92B2     		uxth	r2, r2
 303 009a 122A     		cmp	r2, #18
 304 009c 07D8     		bhi	.L20
 305              		.loc 1 79 0 is_stmt 0 discriminator 1
 306 009e 1E4A     		ldr	r2, .L27+4
 307 00a0 1288     		ldrh	r2, [r2]
 308 00a2 092A     		cmp	r2, #9
 309 00a4 03D8     		bhi	.L20
  80:main.c        ****         strcpy (strbat,"3");
 310              		.loc 1 80 0 is_stmt 1
 311 00a6 224A     		ldr	r2, .L27+28
 312 00a8 1088     		ldrh	r0, [r2]	@ unaligned
 313 00aa 224A     		ldr	r2, .L27+32
 314 00ac 1080     		strh	r0, [r2]	@ unaligned
 315              	.L20:
  81:main.c        ****     }
  82:main.c        ****     if(batverte>40  && batverte<60  && batrouge>40  && batrouge<60){//Orange fixe
 316              		.loc 1 82 0
 317 00ae 122B     		cmp	r3, #18
ARM GAS  C:\Users\pcoud\AppData\Local\Temp\ccFdXS9d.s 			page 8


 318 00b0 09D8     		bhi	.L21
 319              		.loc 1 82 0 is_stmt 0 discriminator 1
 320 00b2 194B     		ldr	r3, .L27+4
 321 00b4 1B88     		ldrh	r3, [r3]
 322 00b6 282B     		cmp	r3, #40
 323 00b8 05D9     		bls	.L21
 324              		.loc 1 82 0 discriminator 2
 325 00ba 3B2B     		cmp	r3, #59
 326 00bc 03D8     		bhi	.L21
  83:main.c        ****         strcpy (strbat,"4");
 327              		.loc 1 83 0 is_stmt 1
 328 00be 1F4B     		ldr	r3, .L27+40
 329 00c0 1A88     		ldrh	r2, [r3]	@ unaligned
 330 00c2 1C4B     		ldr	r3, .L27+32
 331 00c4 1A80     		strh	r2, [r3]	@ unaligned
 332              	.L21:
  84:main.c        ****     }
  85:main.c        ****     if(batrouge>40  && batrouge<60 && batverte<10){                 //Rouge fixe
 333              		.loc 1 85 0
 334 00c6 144B     		ldr	r3, .L27+4
 335 00c8 1B88     		ldrh	r3, [r3]
 336 00ca 293B     		subs	r3, r3, #41
 337 00cc 9BB2     		uxth	r3, r3
 338 00ce 122B     		cmp	r3, #18
 339 00d0 05D8     		bhi	.L22
 340              		.loc 1 85 0 is_stmt 0 discriminator 1
 341 00d2 0929     		cmp	r1, #9
 342 00d4 03D8     		bhi	.L22
  86:main.c        ****         strcpy (strbat,"5");
 343              		.loc 1 86 0 is_stmt 1
 344 00d6 1A4B     		ldr	r3, .L27+44
 345 00d8 1A88     		ldrh	r2, [r3]	@ unaligned
 346 00da 164B     		ldr	r3, .L27+32
 347 00dc 1A80     		strh	r2, [r3]	@ unaligned
 348              	.L22:
  87:main.c        ****     }
  88:main.c        **** 
  89:main.c        **** /*<---TEST LED VERTE PANNEAU--->*/
  90:main.c        ****     if(panneau>40  && panneau<60){   //Verte fixe
 349              		.loc 1 90 0
 350 00de 0F4B     		ldr	r3, .L27+8
 351 00e0 1B88     		ldrh	r3, [r3]
 352 00e2 A3F12902 		sub	r2, r3, #41
 353 00e6 92B2     		uxth	r2, r2
 354 00e8 122A     		cmp	r2, #18
 355 00ea 03D8     		bhi	.L23
  91:main.c        ****         strcpy (strpan,"2");
 356              		.loc 1 91 0
 357 00ec 0F4A     		ldr	r2, .L27+24
 358 00ee 1188     		ldrh	r1, [r2]	@ unaligned
 359 00f0 144A     		ldr	r2, .L27+48
 360 00f2 1180     		strh	r1, [r2]	@ unaligned
 361              	.L23:
  92:main.c        ****     }
  93:main.c        ****     if(panneau>10  && panneau<30){   //Verte clignote
 362              		.loc 1 93 0
 363 00f4 A3F10B02 		sub	r2, r3, #11
ARM GAS  C:\Users\pcoud\AppData\Local\Temp\ccFdXS9d.s 			page 9


 364 00f8 92B2     		uxth	r2, r2
 365 00fa 122A     		cmp	r2, #18
 366 00fc 03D8     		bhi	.L24
  94:main.c        ****         strcpy (strpan,"3");
 367              		.loc 1 94 0
 368 00fe 0C4A     		ldr	r2, .L27+28
 369 0100 1188     		ldrh	r1, [r2]	@ unaligned
 370 0102 104A     		ldr	r2, .L27+48
 371 0104 1180     		strh	r1, [r2]	@ unaligned
 372              	.L24:
  95:main.c        ****     }
  96:main.c        ****     if(panneau<10){                  //Verte éteint
 373              		.loc 1 96 0
 374 0106 092B     		cmp	r3, #9
 375 0108 03D8     		bhi	.L15
  97:main.c        ****         strcpy (strpan,"1"); 
 376              		.loc 1 97 0
 377 010a 0B4B     		ldr	r3, .L27+36
 378 010c 1A88     		ldrh	r2, [r3]	@ unaligned
 379 010e 0D4B     		ldr	r3, .L27+48
 380 0110 1A80     		strh	r2, [r3]	@ unaligned
 381              	.L15:
 382 0112 10BD     		pop	{r4, pc}
 383              	.L28:
 384              		.align	2
 385              	.L27:
 386 0114 00000000 		.word	batverte
 387 0118 00000000 		.word	batrouge
 388 011c 00000000 		.word	panneau
 389 0120 00000000 		.word	disjon
 390 0124 28000000 		.word	.LC10
 391 0128 00000000 		.word	strdis
 392 012c 2C000000 		.word	.LC11
 393 0130 30000000 		.word	.LC12
 394 0134 00000000 		.word	strbat
 395 0138 34000000 		.word	.LC13
 396 013c 38000000 		.word	.LC14
 397 0140 3C000000 		.word	.LC15
 398 0144 00000000 		.word	strpan
 399              		.cfi_endproc
 400              	.LFE65:
 401              		.size	lecture_leds, .-lecture_leds
 402              		.section	.text.sigfox_init,"ax",%progbits
 403              		.align	2
 404              		.global	sigfox_init
 405              		.thumb
 406              		.thumb_func
 407              		.type	sigfox_init, %function
 408              	sigfox_init:
 409              	.LFB66:
  98:main.c        ****     } 
  99:main.c        **** }
 100:main.c        **** /********************************************END lecture LEDS**************************************
 101:main.c        **** 
 102:main.c        **** 
 103:main.c        **** /********************************************START Initialisation Sigfox***************************
 104:main.c        **** void sigfox_init()
ARM GAS  C:\Users\pcoud\AppData\Local\Temp\ccFdXS9d.s 			page 10


 105:main.c        ****     {
 410              		.loc 1 105 0
 411              		.cfi_startproc
 412              		@ args = 0, pretend = 0, frame = 0
 413              		@ frame_needed = 0, uses_anonymous_args = 0
 414 0000 08B5     		push	{r3, lr}
 415              		.cfi_def_cfa_offset 8
 416              		.cfi_offset 3, -8
 417              		.cfi_offset 14, -4
 106:main.c        ****      //initialisation du module sigfox
 107:main.c        ****     UART_SIG_Start();
 418              		.loc 1 107 0
 419 0002 FFF7FEFF 		bl	UART_SIG_Start
 420              	.LVL10:
 108:main.c        ****     CyDelay(100);
 421              		.loc 1 108 0
 422 0006 6420     		movs	r0, #100
 423 0008 FFF7FEFF 		bl	CyDelay
 424              	.LVL11:
 109:main.c        ****     UART_SIG_PutString("ATE1\r");
 425              		.loc 1 109 0
 426 000c 0548     		ldr	r0, .L31
 427 000e FFF7FEFF 		bl	UART_SIG_PutString
 428              	.LVL12:
 110:main.c        ****     UART_SIG_PutString("ATQ0\r");
 429              		.loc 1 110 0
 430 0012 0548     		ldr	r0, .L31+4
 431 0014 FFF7FEFF 		bl	UART_SIG_PutString
 432              	.LVL13:
 111:main.c        ****     CyDelay(1000);
 433              		.loc 1 111 0
 434 0018 4FF47A70 		mov	r0, #1000
 435 001c FFF7FEFF 		bl	CyDelay
 436              	.LVL14:
 437 0020 08BD     		pop	{r3, pc}
 438              	.L32:
 439 0022 00BF     		.align	2
 440              	.L31:
 441 0024 40000000 		.word	.LC16
 442 0028 48000000 		.word	.LC17
 443              		.cfi_endproc
 444              	.LFE66:
 445              		.size	sigfox_init, .-sigfox_init
 446              		.section	.text.gsm_init,"ax",%progbits
 447              		.align	2
 448              		.global	gsm_init
 449              		.thumb
 450              		.thumb_func
 451              		.type	gsm_init, %function
 452              	gsm_init:
 453              	.LFB67:
 112:main.c        ****     }
 113:main.c        **** /********************************************START Initialisation GSM******************************
 114:main.c        **** //Initialisation du GSM
 115:main.c        **** void gsm_init()
 116:main.c        ****     {
 454              		.loc 1 116 0
ARM GAS  C:\Users\pcoud\AppData\Local\Temp\ccFdXS9d.s 			page 11


 455              		.cfi_startproc
 456              		@ args = 0, pretend = 0, frame = 0
 457              		@ frame_needed = 0, uses_anonymous_args = 0
 458 0000 08B5     		push	{r3, lr}
 459              		.cfi_def_cfa_offset 8
 460              		.cfi_offset 3, -8
 461              		.cfi_offset 14, -4
 117:main.c        ****     UART_GSM_Start();     
 462              		.loc 1 117 0
 463 0002 FFF7FEFF 		bl	UART_GSM_Start
 464              	.LVL15:
 118:main.c        ****     CyDelay(1000);
 465              		.loc 1 118 0
 466 0006 4FF47A70 		mov	r0, #1000
 467 000a FFF7FEFF 		bl	CyDelay
 468              	.LVL16:
 119:main.c        ****     UART_GSM_ClearTxBuffer();                //Efface le buffer de Tx
 469              		.loc 1 119 0
 470 000e FFF7FEFF 		bl	UART_GSM_ClearTxBuffer
 471              	.LVL17:
 120:main.c        ****     UART_GSM_PutString("AT\n\r");
 472              		.loc 1 120 0
 473 0012 0C48     		ldr	r0, .L35
 474 0014 FFF7FEFF 		bl	UART_GSM_PutString
 475              	.LVL18:
 121:main.c        ****     CyDelay(500);
 476              		.loc 1 121 0
 477 0018 4FF4FA70 		mov	r0, #500
 478 001c FFF7FEFF 		bl	CyDelay
 479              	.LVL19:
 122:main.c        ****     //UART_GSM_PutString("AT+CSQ\r");        //Demande du niveau de réception
 123:main.c        ****     //CyDelay(500);
 124:main.c        ****     UART_GSM_PutString("AT+CMGF=1\n\r");       //Choix du mode texte
 480              		.loc 1 124 0
 481 0020 0948     		ldr	r0, .L35+4
 482 0022 FFF7FEFF 		bl	UART_GSM_PutString
 483              	.LVL20:
 125:main.c        ****     CyDelay(500);
 484              		.loc 1 125 0
 485 0026 4FF4FA70 		mov	r0, #500
 486 002a FFF7FEFF 		bl	CyDelay
 487              	.LVL21:
 126:main.c        ****     UART_GSM_PutString("AT+CSMP=17,0,0\n\r");  //Paramètrage du mode texte
 488              		.loc 1 126 0
 489 002e 0748     		ldr	r0, .L35+8
 490 0030 FFF7FEFF 		bl	UART_GSM_PutString
 491              	.LVL22:
 127:main.c        ****     CyDelay(500);
 492              		.loc 1 127 0
 493 0034 4FF4FA70 		mov	r0, #500
 494 0038 FFF7FEFF 		bl	CyDelay
 495              	.LVL23:
 128:main.c        ****     UART_GSM_PutString("AT+CMGD=1,1\n\r");     //Efface les messages
 496              		.loc 1 128 0
 497 003c 0448     		ldr	r0, .L35+12
 498 003e FFF7FEFF 		bl	UART_GSM_PutString
 499              	.LVL24:
ARM GAS  C:\Users\pcoud\AppData\Local\Temp\ccFdXS9d.s 			page 12


 500 0042 08BD     		pop	{r3, pc}
 501              	.L36:
 502              		.align	2
 503              	.L35:
 504 0044 50000000 		.word	.LC18
 505 0048 58000000 		.word	.LC19
 506 004c 64000000 		.word	.LC20
 507 0050 78000000 		.word	.LC21
 508              		.cfi_endproc
 509              	.LFE67:
 510              		.size	gsm_init, .-gsm_init
 511              		.section	.text.sigfox_send,"ax",%progbits
 512              		.align	2
 513              		.global	sigfox_send
 514              		.thumb
 515              		.thumb_func
 516              		.type	sigfox_send, %function
 517              	sigfox_send:
 518              	.LFB68:
 129:main.c        ****     }
 130:main.c        **** 
 131:main.c        **** /********************************************START Envoi Sigfox************************************
 132:main.c        **** void sigfox_send()
 133:main.c        ****  {
 519              		.loc 1 133 0
 520              		.cfi_startproc
 521              		@ args = 0, pretend = 0, frame = 0
 522              		@ frame_needed = 0, uses_anonymous_args = 0
 523 0000 08B5     		push	{r3, lr}
 524              		.cfi_def_cfa_offset 8
 525              		.cfi_offset 3, -8
 526              		.cfi_offset 14, -4
 134:main.c        ****     //Cas de fonctionement normal : disjoncteur OK
 135:main.c        ****     if(disjon > 40){
 527              		.loc 1 135 0
 528 0002 264B     		ldr	r3, .L42
 529 0004 1B88     		ldrh	r3, [r3]
 530 0006 282B     		cmp	r3, #40
 531 0008 18D9     		bls	.L38
 136:main.c        ****         UART_SIG_PutString("AT$SF=");
 532              		.loc 1 136 0
 533 000a 2548     		ldr	r0, .L42+4
 534 000c FFF7FEFF 		bl	UART_SIG_PutString
 535              	.LVL25:
 137:main.c        ****         UART_SIG_PutChar('0');              
 536              		.loc 1 137 0
 537 0010 3020     		movs	r0, #48
 538 0012 FFF7FEFF 		bl	UART_SIG_PutChar
 539              	.LVL26:
 138:main.c        ****         UART_SIG_PutString(strdis);
 540              		.loc 1 138 0
 541 0016 2348     		ldr	r0, .L42+8
 542 0018 FFF7FEFF 		bl	UART_SIG_PutString
 543              	.LVL27:
 139:main.c        ****         //UART_SIG_PutChar('0');
 140:main.c        ****         UART_SIG_PutString(strpan);
 544              		.loc 1 140 0
ARM GAS  C:\Users\pcoud\AppData\Local\Temp\ccFdXS9d.s 			page 13


 545 001c 2248     		ldr	r0, .L42+12
 546 001e FFF7FEFF 		bl	UART_SIG_PutString
 547              	.LVL28:
 141:main.c        ****         //UART_SIG_PutChar('0');
 142:main.c        ****         UART_SIG_PutString(strbat);
 548              		.loc 1 142 0
 549 0022 2248     		ldr	r0, .L42+16
 550 0024 FFF7FEFF 		bl	UART_SIG_PutString
 551              	.LVL29:
 143:main.c        ****         UART_SIG_PutString("00");           //Niveau eau puits
 552              		.loc 1 143 0
 553 0028 2148     		ldr	r0, .L42+20
 554 002a FFF7FEFF 		bl	UART_SIG_PutString
 555              	.LVL30:
 144:main.c        ****         UART_SIG_PutString(niv_reserv);     //Niveau eau réservoir
 556              		.loc 1 144 0
 557 002e 2148     		ldr	r0, .L42+24
 558 0030 FFF7FEFF 		bl	UART_SIG_PutString
 559              	.LVL31:
 145:main.c        ****         UART_SIG_PutChar('\r');
 560              		.loc 1 145 0
 561 0034 0D20     		movs	r0, #13
 562 0036 FFF7FEFF 		bl	UART_SIG_PutChar
 563              	.LVL32:
 564 003a 08BD     		pop	{r3, pc}
 565              	.L38:
 146:main.c        ****     }
 147:main.c        ****     //Cas de fonctionement anormal : disjoncteur déclenché
 148:main.c        ****     else{
 149:main.c        ****         UART_SIG_PutString("AT$SF=");
 566              		.loc 1 149 0
 567 003c 1848     		ldr	r0, .L42+4
 568 003e FFF7FEFF 		bl	UART_SIG_PutString
 569              	.LVL33:
 150:main.c        ****         UART_SIG_PutChar('0');              
 570              		.loc 1 150 0
 571 0042 3020     		movs	r0, #48
 572 0044 FFF7FEFF 		bl	UART_SIG_PutChar
 573              	.LVL34:
 151:main.c        ****         UART_SIG_PutString(strdis);
 574              		.loc 1 151 0
 575 0048 1648     		ldr	r0, .L42+8
 576 004a FFF7FEFF 		bl	UART_SIG_PutString
 577              	.LVL35:
 152:main.c        ****         //UART_SIG_PutChar('0');
 153:main.c        ****         UART_SIG_PutString(strpan);
 578              		.loc 1 153 0
 579 004e 1648     		ldr	r0, .L42+12
 580 0050 FFF7FEFF 		bl	UART_SIG_PutString
 581              	.LVL36:
 154:main.c        ****         //UART_SIG_PutChar('0');
 155:main.c        ****         UART_SIG_PutString(strbat);
 582              		.loc 1 155 0
 583 0054 1548     		ldr	r0, .L42+16
 584 0056 FFF7FEFF 		bl	UART_SIG_PutString
 585              	.LVL37:
 156:main.c        ****         UART_SIG_PutString("00");           //Niveau eau puits
ARM GAS  C:\Users\pcoud\AppData\Local\Temp\ccFdXS9d.s 			page 14


 586              		.loc 1 156 0
 587 005a 1548     		ldr	r0, .L42+20
 588 005c FFF7FEFF 		bl	UART_SIG_PutString
 589              	.LVL38:
 157:main.c        ****         UART_SIG_PutString(niv_reserv);     //Niveau eau réservoir
 590              		.loc 1 157 0
 591 0060 1448     		ldr	r0, .L42+24
 592 0062 FFF7FEFF 		bl	UART_SIG_PutString
 593              	.LVL39:
 158:main.c        ****        
 159:main.c        ****         UART_SIG_PutString(",1,1");
 594              		.loc 1 159 0
 595 0066 1448     		ldr	r0, .L42+28
 596 0068 FFF7FEFF 		bl	UART_SIG_PutString
 597              	.LVL40:
 160:main.c        ****         UART_SIG_PutChar('\r');
 598              		.loc 1 160 0
 599 006c 0D20     		movs	r0, #13
 600 006e FFF7FEFF 		bl	UART_SIG_PutChar
 601              	.LVL41:
 161:main.c        ****         
 162:main.c        ****         //début traitement réception
 163:main.c        ****         CyDelay(5000);
 602              		.loc 1 163 0
 603 0072 41F28830 		movw	r0, #5000
 604 0076 FFF7FEFF 		bl	CyDelay
 605              	.LVL42:
 164:main.c        ****         cptcar=0;
 606              		.loc 1 164 0
 607 007a 0023     		movs	r3, #0
 608 007c 0F4A     		ldr	r2, .L42+32
 609 007e 1370     		strb	r3, [r2]
 165:main.c        ****         phase=0;
 610              		.loc 1 165 0
 611 0080 0F4A     		ldr	r2, .L42+36
 612 0082 1370     		strb	r3, [r2]
 166:main.c        ****         UART_SIG_ClearRxBuffer();    //Efface le buffer de Rx
 613              		.loc 1 166 0
 614 0084 FFF7FEFF 		bl	UART_SIG_ClearRxBuffer
 615              	.LVL43:
 167:main.c        ****         isr_serial_Start();
 616              		.loc 1 167 0
 617 0088 FFF7FEFF 		bl	isr_serial_Start
 618              	.LVL44:
 619              	.L40:
 168:main.c        ****         while(phase<2);              //Attente réponse message
 620              		.loc 1 168 0 discriminator 1
 621 008c 0C4B     		ldr	r3, .L42+36
 622 008e 1B78     		ldrb	r3, [r3]	@ zero_extendqisi2
 623 0090 012B     		cmp	r3, #1
 624 0092 FBD9     		bls	.L40
 169:main.c        ****         isr_serial_Stop();
 625              		.loc 1 169 0
 626 0094 FFF7FEFF 		bl	isr_serial_Stop
 627              	.LVL45:
 628 0098 08BD     		pop	{r3, pc}
 629              	.L43:
ARM GAS  C:\Users\pcoud\AppData\Local\Temp\ccFdXS9d.s 			page 15


 630 009a 00BF     		.align	2
 631              	.L42:
 632 009c 00000000 		.word	disjon
 633 00a0 88000000 		.word	.LC22
 634 00a4 00000000 		.word	strdis
 635 00a8 00000000 		.word	strpan
 636 00ac 00000000 		.word	strbat
 637 00b0 00000000 		.word	.LC0
 638 00b4 00000000 		.word	niv_reserv
 639 00b8 90000000 		.word	.LC23
 640 00bc 00000000 		.word	cptcar
 641 00c0 00000000 		.word	phase
 642              		.cfi_endproc
 643              	.LFE68:
 644              		.size	sigfox_send, .-sigfox_send
 645              		.section	.text.main,"ax",%progbits
 646              		.align	2
 647              		.global	main
 648              		.thumb
 649              		.thumb_func
 650              		.type	main, %function
 651              	main:
 652              	.LFB69:
 170:main.c        ****     //reception message du serveur sigfox
 171:main.c        ****     }
 172:main.c        ****   }
 173:main.c        ****         /********************************************END Envoi Sigfox******************************
 174:main.c        **** /********************************************START Reception Sigfox********************************
 175:main.c        **** /********************************************END Envoi Sigfox**************************************
 176:main.c        **** 
 177:main.c        **** /*-XXXXXXXXXXXXXXXXXXXXXXXXXXXXXXXXXXXXXXXXXXXXXXX-VOID MAIN-XXXXXXXXXXXXXXXXXXXXXXXXXXXXXXXXXXXXXX
 178:main.c        **** int main(void)
 179:main.c        **** {
 653              		.loc 1 179 0
 654              		.cfi_startproc
 655              		@ Volatile: function does not return.
 656              		@ args = 0, pretend = 0, frame = 0
 657              		@ frame_needed = 0, uses_anonymous_args = 0
 658 0000 08B5     		push	{r3, lr}
 659              		.cfi_def_cfa_offset 8
 660              		.cfi_offset 3, -8
 661              		.cfi_offset 14, -4
 180:main.c        ****     CyGlobalIntEnable; 
 662              		.loc 1 180 0
 663              		.syntax unified
 664              	@ 180 "main.c" 1
 665 0002 62B6     		CPSIE   i
 666              	@ 0 "" 2
 181:main.c        ****     sigfox_init();
 667              		.loc 1 181 0
 668              		.thumb
 669              		.syntax unified
 670 0004 FFF7FEFF 		bl	sigfox_init
 671              	.LVL46:
 182:main.c        ****     gsm_init();
 672              		.loc 1 182 0
 673 0008 FFF7FEFF 		bl	gsm_init
ARM GAS  C:\Users\pcoud\AppData\Local\Temp\ccFdXS9d.s 			page 16


 674              	.LVL47:
 183:main.c        ****     //Initialisation pour éviter déclenchement disjoncteur
 184:main.c        ****     Relais_Write(0); 
 675              		.loc 1 184 0
 676 000c 0020     		movs	r0, #0
 677 000e FFF7FEFF 		bl	Relais_Write
 678              	.LVL48:
 185:main.c        ****     resp[4]='0';
 679              		.loc 1 185 0
 680 0012 1D4B     		ldr	r3, .L51
 681 0014 3022     		movs	r2, #48
 682 0016 1A71     		strb	r2, [r3, #4]
 186:main.c        ****     resp[5]='0';
 683              		.loc 1 186 0
 684 0018 5A71     		strb	r2, [r3, #5]
 685              	.L45:
 187:main.c        ****     for(;;)
 188:main.c        ****     {       
 189:main.c        ****     lecture_reserv();
 686              		.loc 1 189 0
 687 001a FFF7FEFF 		bl	lecture_reserv
 688              	.LVL49:
 190:main.c        ****     lecture_leds();
 689              		.loc 1 190 0
 690 001e FFF7FEFF 		bl	lecture_leds
 691              	.LVL50:
 191:main.c        ****     sigfox_send();
 692              		.loc 1 191 0
 693 0022 FFF7FEFF 		bl	sigfox_send
 694              	.LVL51:
 192:main.c        ****     
 193:main.c        ****     //Vérification ré - enclenchement a effectuer ?
 194:main.c        ****     if ((resp[4]=='1')||(resp[5]=='1')) {
 695              		.loc 1 194 0
 696 0026 184B     		ldr	r3, .L51
 697 0028 1B79     		ldrb	r3, [r3, #4]	@ zero_extendqisi2
 698 002a 312B     		cmp	r3, #49
 699 002c 03D0     		beq	.L46
 700              		.loc 1 194 0 is_stmt 0 discriminator 1
 701 002e 164B     		ldr	r3, .L51
 702 0030 5B79     		ldrb	r3, [r3, #5]	@ zero_extendqisi2
 703 0032 312B     		cmp	r3, #49
 704 0034 0DD1     		bne	.L47
 705              	.L46:
 195:main.c        ****         Relais_Write(1);   //Disjoncteur à enclencher
 706              		.loc 1 195 0 is_stmt 1
 707 0036 0120     		movs	r0, #1
 708 0038 FFF7FEFF 		bl	Relais_Write
 709              	.LVL52:
 196:main.c        ****         CyDelay(1000);
 710              		.loc 1 196 0
 711 003c 4FF47A70 		mov	r0, #1000
 712 0040 FFF7FEFF 		bl	CyDelay
 713              	.LVL53:
 197:main.c        ****         Relais_Write(0);
 714              		.loc 1 197 0
 715 0044 0020     		movs	r0, #0
ARM GAS  C:\Users\pcoud\AppData\Local\Temp\ccFdXS9d.s 			page 17


 716 0046 FFF7FEFF 		bl	Relais_Write
 717              	.LVL54:
 198:main.c        ****         resp[4]='0';
 718              		.loc 1 198 0
 719 004a 0F4B     		ldr	r3, .L51
 720 004c 3022     		movs	r2, #48
 721 004e 1A71     		strb	r2, [r3, #4]
 199:main.c        ****         resp[5]='0';
 722              		.loc 1 199 0
 723 0050 5A71     		strb	r2, [r3, #5]
 724              	.L47:
 200:main.c        ****         }
 201:main.c        ****     
 202:main.c        ****     //Tempo entre 2 transmissions
 203:main.c        ****     if(disjon > 40) {  //Non disjoncté
 725              		.loc 1 203 0
 726 0052 0E4B     		ldr	r3, .L51+4
 727 0054 1B88     		ldrh	r3, [r3]
 728 0056 282B     		cmp	r3, #40
 729 0058 03D9     		bls	.L48
 204:main.c        ****         CyDelay(660000); //Toutes les ?? minutes
 730              		.loc 1 204 0
 731 005a 0D48     		ldr	r0, .L51+8
 732 005c FFF7FEFF 		bl	CyDelay
 733              	.LVL55:
 734 0060 DBE7     		b	.L45
 735              	.L48:
 205:main.c        ****     }
 206:main.c        ****     else {  //Disjoncté
 207:main.c        ****         UART_GSM_ClearTxBuffer();           //Efface le buffer de Tx
 736              		.loc 1 207 0
 737 0062 FFF7FEFF 		bl	UART_GSM_ClearTxBuffer
 738              	.LVL56:
 208:main.c        ****         UART_GSM_PutString("AT+CMGS=\"+33630702827\"\r\n");     //Sélection du destinataire
 739              		.loc 1 208 0
 740 0066 0B48     		ldr	r0, .L51+12
 741 0068 FFF7FEFF 		bl	UART_GSM_PutString
 742              	.LVL57:
 209:main.c        ****         CyDelay(500);
 743              		.loc 1 209 0
 744 006c 4FF4FA70 		mov	r0, #500
 745 0070 FFF7FEFF 		bl	CyDelay
 746              	.LVL58:
 210:main.c        ****         UART_GSM_PutString("Regulateur disjonte !");
 747              		.loc 1 210 0
 748 0074 0848     		ldr	r0, .L51+16
 749 0076 FFF7FEFF 		bl	UART_GSM_PutString
 750              	.LVL59:
 211:main.c        ****         UART_GSM_PutChar(26);                         //Envoi du message par un Ctrl+z (0x1A en hex
 751              		.loc 1 211 0
 752 007a 1A20     		movs	r0, #26
 753 007c FFF7FEFF 		bl	UART_GSM_PutChar
 754              	.LVL60:
 212:main.c        ****         CyDelay(660000); //Toutes les 11 minutes
 755              		.loc 1 212 0
 756 0080 0348     		ldr	r0, .L51+8
 757 0082 FFF7FEFF 		bl	CyDelay
ARM GAS  C:\Users\pcoud\AppData\Local\Temp\ccFdXS9d.s 			page 18


 758              	.LVL61:
 759 0086 C8E7     		b	.L45
 760              	.L52:
 761              		.align	2
 762              	.L51:
 763 0088 00000000 		.word	resp
 764 008c 00000000 		.word	disjon
 765 0090 20120A00 		.word	660000
 766 0094 98000000 		.word	.LC24
 767 0098 B4000000 		.word	.LC25
 768              		.cfi_endproc
 769              	.LFE69:
 770              		.size	main, .-main
 771              		.comm	j,1,1
 772              		.comm	phase,1,1
 773              		.comm	cptcar,1,1
 774              		.comm	resp,35,4
 775              		.comm	begin,15,4
 776              		.comm	message,35,4
 777              		.comm	niv_reserv,3,4
 778              		.comm	strpan,2,4
 779              		.comm	strdis,2,4
 780              		.comm	strbat,2,4
 781              		.comm	disjon,2,2
 782              		.comm	panneau,2,2
 783              		.comm	batrouge,2,2
 784              		.comm	batverte,2,2
 785              		.section	.rodata.str1.4,"aMS",%progbits,1
 786              		.align	2
 787              	.LC0:
 788 0000 303000   		.ascii	"00\000"
 789 0003 00       		.space	1
 790              	.LC1:
 791 0004 303200   		.ascii	"02\000"
 792 0007 00       		.space	1
 793              	.LC2:
 794 0008 303400   		.ascii	"04\000"
 795 000b 00       		.space	1
 796              	.LC3:
 797 000c 303600   		.ascii	"06\000"
 798 000f 00       		.space	1
 799              	.LC4:
 800 0010 303800   		.ascii	"08\000"
 801 0013 00       		.space	1
 802              	.LC5:
 803 0014 313000   		.ascii	"10\000"
 804 0017 00       		.space	1
 805              	.LC6:
 806 0018 313200   		.ascii	"12\000"
 807 001b 00       		.space	1
 808              	.LC7:
 809 001c 313400   		.ascii	"14\000"
 810 001f 00       		.space	1
 811              	.LC8:
 812 0020 313600   		.ascii	"16\000"
 813 0023 00       		.space	1
 814              	.LC9:
ARM GAS  C:\Users\pcoud\AppData\Local\Temp\ccFdXS9d.s 			page 19


 815 0024 393900   		.ascii	"99\000"
 816 0027 00       		.space	1
 817              	.LC10:
 818 0028 3000     		.ascii	"0\000"
 819 002a 0000     		.space	2
 820              	.LC11:
 821 002c 3200     		.ascii	"2\000"
 822 002e 0000     		.space	2
 823              	.LC12:
 824 0030 3300     		.ascii	"3\000"
 825 0032 0000     		.space	2
 826              	.LC13:
 827 0034 3100     		.ascii	"1\000"
 828 0036 0000     		.space	2
 829              	.LC14:
 830 0038 3400     		.ascii	"4\000"
 831 003a 0000     		.space	2
 832              	.LC15:
 833 003c 3500     		.ascii	"5\000"
 834 003e 0000     		.space	2
 835              	.LC16:
 836 0040 41544531 		.ascii	"ATE1\015\000"
 836      0D00
 837 0046 0000     		.space	2
 838              	.LC17:
 839 0048 41545130 		.ascii	"ATQ0\015\000"
 839      0D00
 840 004e 0000     		.space	2
 841              	.LC18:
 842 0050 41540A0D 		.ascii	"AT\012\015\000"
 842      00
 843 0055 000000   		.space	3
 844              	.LC19:
 845 0058 41542B43 		.ascii	"AT+CMGF=1\012\015\000"
 845      4D47463D 
 845      310A0D00 
 846              	.LC20:
 847 0064 41542B43 		.ascii	"AT+CSMP=17,0,0\012\015\000"
 847      534D503D 
 847      31372C30 
 847      2C300A0D 
 847      00
 848 0075 000000   		.space	3
 849              	.LC21:
 850 0078 41542B43 		.ascii	"AT+CMGD=1,1\012\015\000"
 850      4D47443D 
 850      312C310A 
 850      0D00
 851 0086 0000     		.space	2
 852              	.LC22:
 853 0088 41542453 		.ascii	"AT$SF=\000"
 853      463D00
 854 008f 00       		.space	1
 855              	.LC23:
 856 0090 2C312C31 		.ascii	",1,1\000"
 856      00
 857 0095 000000   		.space	3
ARM GAS  C:\Users\pcoud\AppData\Local\Temp\ccFdXS9d.s 			page 20


 858              	.LC24:
 859 0098 41542B43 		.ascii	"AT+CMGS=\"+33630702827\"\015\012\000"
 859      4D47533D 
 859      222B3333 
 859      36333037 
 859      30323832 
 860 00b1 000000   		.space	3
 861              	.LC25:
 862 00b4 52656775 		.ascii	"Regulateur disjonte !\000"
 862      6C617465 
 862      75722064 
 862      69736A6F 
 862      6E746520 
 863              		.text
 864              	.Letext0:
 865              		.file 2 "c:\\program files (x86)\\cypress\\psoc creator\\4.1\\psoc creator\\import\\gnu\\arm\\5.4.
 866              		.file 3 "c:\\program files (x86)\\cypress\\psoc creator\\4.1\\psoc creator\\import\\gnu\\arm\\5.4.
 867              		.file 4 "Generated_Source\\PSoC5/cytypes.h"
 868              		.file 5 "Generated_Source\\PSoC5/core_cm3.h"
 869              		.file 6 "Generated_Source\\PSoC5/niveau.h"
 870              		.file 7 "Generated_Source\\PSoC5/isr_rbat.h"
 871              		.file 8 "Generated_Source\\PSoC5/isr_vbat.h"
 872              		.file 9 "Generated_Source\\PSoC5/isr_rch.h"
 873              		.file 10 "Generated_Source\\PSoC5/isr_vpan.h"
 874              		.file 11 "Generated_Source\\PSoC5/CyLib.h"
 875              		.file 12 "Generated_Source\\PSoC5/UART_SIG.h"
 876              		.file 13 "Generated_Source\\PSoC5/UART_GSM.h"
 877              		.file 14 "Generated_Source\\PSoC5/isr_serial.h"
 878              		.file 15 "Generated_Source\\PSoC5/Relais.h"